
efm32-test:     file format elf32-littlearm


Disassembly of section .text:

00000000 <__Vectors>:
       0:	20020000 	.word	0x20020000
       4:	00002135 	.word	0x00002135
       8:	00002161 	.word	0x00002161
       c:	00002161 	.word	0x00002161
      10:	00002161 	.word	0x00002161
      14:	00002161 	.word	0x00002161
      18:	00002161 	.word	0x00002161
      1c:	00002161 	.word	0x00002161
      20:	00002161 	.word	0x00002161
      24:	00002161 	.word	0x00002161
      28:	00002161 	.word	0x00002161
      2c:	00002161 	.word	0x00002161
      30:	00002161 	.word	0x00002161
      34:	00002161 	.word	0x00002161
      38:	00002161 	.word	0x00002161
      3c:	00002161 	.word	0x00002161
      40:	00002161 	.word	0x00002161
      44:	00002161 	.word	0x00002161
      48:	00002161 	.word	0x00002161
      4c:	00002161 	.word	0x00002161
      50:	00002161 	.word	0x00002161
      54:	00002161 	.word	0x00002161
      58:	00002161 	.word	0x00002161
      5c:	00002161 	.word	0x00002161
      60:	00002161 	.word	0x00002161
      64:	00002161 	.word	0x00002161
      68:	00002161 	.word	0x00002161
      6c:	00002161 	.word	0x00002161
      70:	00002161 	.word	0x00002161
      74:	00002161 	.word	0x00002161
      78:	00002161 	.word	0x00002161
      7c:	00002161 	.word	0x00002161
      80:	00002161 	.word	0x00002161
      84:	00002161 	.word	0x00002161
      88:	00002161 	.word	0x00002161
      8c:	00002161 	.word	0x00002161
      90:	00002161 	.word	0x00002161
      94:	00002161 	.word	0x00002161
      98:	00000db9 	.word	0x00000db9
      9c:	00000e11 	.word	0x00000e11
      a0:	00002161 	.word	0x00002161
      a4:	00002161 	.word	0x00002161
      a8:	00002161 	.word	0x00002161
      ac:	00002161 	.word	0x00002161
      b0:	00002161 	.word	0x00002161
      b4:	00002161 	.word	0x00002161
      b8:	00002161 	.word	0x00002161
      bc:	00002161 	.word	0x00002161
      c0:	00002161 	.word	0x00002161
      c4:	00002161 	.word	0x00002161
      c8:	00002161 	.word	0x00002161
      cc:	00002161 	.word	0x00002161
      d0:	00002161 	.word	0x00002161
      d4:	00002161 	.word	0x00002161
      d8:	00002161 	.word	0x00002161

000000dc <__do_global_dtors_aux>:
      dc:	b510      	push	{r4, lr}
      de:	4c05      	ldr	r4, [pc, #20]	; (f4 <__do_global_dtors_aux+0x18>)
      e0:	7823      	ldrb	r3, [r4, #0]
      e2:	b933      	cbnz	r3, f2 <__do_global_dtors_aux+0x16>
      e4:	4b04      	ldr	r3, [pc, #16]	; (f8 <__do_global_dtors_aux+0x1c>)
      e6:	b113      	cbz	r3, ee <__do_global_dtors_aux+0x12>
      e8:	4804      	ldr	r0, [pc, #16]	; (fc <__do_global_dtors_aux+0x20>)
      ea:	f3af 8000 	nop.w
      ee:	2301      	movs	r3, #1
      f0:	7023      	strb	r3, [r4, #0]
      f2:	bd10      	pop	{r4, pc}
      f4:	20000654 	.word	0x20000654
      f8:	00000000 	.word	0x00000000
      fc:	00005070 	.word	0x00005070

00000100 <frame_dummy>:
     100:	4b08      	ldr	r3, [pc, #32]	; (124 <frame_dummy+0x24>)
     102:	b510      	push	{r4, lr}
     104:	b11b      	cbz	r3, 10e <frame_dummy+0xe>
     106:	4908      	ldr	r1, [pc, #32]	; (128 <frame_dummy+0x28>)
     108:	4808      	ldr	r0, [pc, #32]	; (12c <frame_dummy+0x2c>)
     10a:	f3af 8000 	nop.w
     10e:	4808      	ldr	r0, [pc, #32]	; (130 <frame_dummy+0x30>)
     110:	6803      	ldr	r3, [r0, #0]
     112:	b903      	cbnz	r3, 116 <frame_dummy+0x16>
     114:	bd10      	pop	{r4, pc}
     116:	4b07      	ldr	r3, [pc, #28]	; (134 <frame_dummy+0x34>)
     118:	2b00      	cmp	r3, #0
     11a:	d0fb      	beq.n	114 <frame_dummy+0x14>
     11c:	e8bd 4010 	ldmia.w	sp!, {r4, lr}
     120:	4718      	bx	r3
     122:	bf00      	nop
     124:	00000000 	.word	0x00000000
     128:	20000658 	.word	0x20000658
     12c:	00005070 	.word	0x00005070
     130:	20000650 	.word	0x20000650
     134:	00000000 	.word	0x00000000

00000138 <_mainCRTStartup>:
     138:	4b15      	ldr	r3, [pc, #84]	; (190 <_mainCRTStartup+0x58>)
     13a:	2b00      	cmp	r3, #0
     13c:	bf08      	it	eq
     13e:	4b13      	ldreq	r3, [pc, #76]	; (18c <_mainCRTStartup+0x54>)
     140:	469d      	mov	sp, r3
     142:	f5a3 3a80 	sub.w	sl, r3, #65536	; 0x10000
     146:	2100      	movs	r1, #0
     148:	468b      	mov	fp, r1
     14a:	460f      	mov	r7, r1
     14c:	4813      	ldr	r0, [pc, #76]	; (19c <_mainCRTStartup+0x64>)
     14e:	4a14      	ldr	r2, [pc, #80]	; (1a0 <_mainCRTStartup+0x68>)
     150:	1a12      	subs	r2, r2, r0
     152:	f004 fadb 	bl	470c <memset>
     156:	4b0f      	ldr	r3, [pc, #60]	; (194 <_mainCRTStartup+0x5c>)
     158:	2b00      	cmp	r3, #0
     15a:	d000      	beq.n	15e <_mainCRTStartup+0x26>
     15c:	4798      	blx	r3
     15e:	4b0e      	ldr	r3, [pc, #56]	; (198 <_mainCRTStartup+0x60>)
     160:	2b00      	cmp	r3, #0
     162:	d000      	beq.n	166 <_mainCRTStartup+0x2e>
     164:	4798      	blx	r3
     166:	2000      	movs	r0, #0
     168:	2100      	movs	r1, #0
     16a:	0004      	movs	r4, r0
     16c:	000d      	movs	r5, r1
     16e:	480d      	ldr	r0, [pc, #52]	; (1a4 <_mainCRTStartup+0x6c>)
     170:	2800      	cmp	r0, #0
     172:	d002      	beq.n	17a <_mainCRTStartup+0x42>
     174:	480c      	ldr	r0, [pc, #48]	; (1a8 <_mainCRTStartup+0x70>)
     176:	f3af 8000 	nop.w
     17a:	f004 fa99 	bl	46b0 <__libc_init_array>
     17e:	0020      	movs	r0, r4
     180:	0029      	movs	r1, r5
     182:	f000 f85d 	bl	240 <main>
     186:	f004 fa7f 	bl	4688 <exit>
     18a:	bf00      	nop
     18c:	00080000 	.word	0x00080000
     190:	20020000 	.word	0x20020000
	...
     19c:	20000654 	.word	0x20000654
     1a0:	200013dc 	.word	0x200013dc
	...

000001ac <SYSTEM_GetProdRev>:
 * @return
 *   Production revision for this part.
 ******************************************************************************/
__STATIC_INLINE uint8_t SYSTEM_GetProdRev(void)
{
  return (DEVINFO->PART & _DEVINFO_PART_PROD_REV_MASK)
     1ac:	4b03      	ldr	r3, [pc, #12]	; (1bc <SYSTEM_GetProdRev+0x10>)
     1ae:	6cdb      	ldr	r3, [r3, #76]	; 0x4c
     1b0:	f003 437f 	and.w	r3, r3, #4278190080	; 0xff000000
         >> _DEVINFO_PART_PROD_REV_SHIFT;
     1b4:	0e1b      	lsrs	r3, r3, #24
 * @return
 *   Production revision for this part.
 ******************************************************************************/
__STATIC_INLINE uint8_t SYSTEM_GetProdRev(void)
{
  return (DEVINFO->PART & _DEVINFO_PART_PROD_REV_MASK)
     1b6:	b2db      	uxtb	r3, r3
         >> _DEVINFO_PART_PROD_REV_SHIFT;
}
     1b8:	4618      	mov	r0, r3
     1ba:	4770      	bx	lr
     1bc:	0fe081b0 	.word	0x0fe081b0

000001c0 <CHIP_Init>:
 * This init function will configure the device to a state where it is
 * as similar as later revisions as possible, to improve software compatibility
 * with newer parts. See the device specific errata for details.
 *****************************************************************************/
__STATIC_INLINE void CHIP_Init(void)
{
     1c0:	b500      	push	{lr}
     1c2:	b083      	sub	sp, #12
  /* Fix for errata CMU_E113. */

  uint8_t                     prodRev;
  SYSTEM_ChipRevision_TypeDef chipRev;

  prodRev = SYSTEM_GetProdRev();
     1c4:	f7ff fff2 	bl	1ac <SYSTEM_GetProdRev>
     1c8:	4603      	mov	r3, r0
     1ca:	f88d 3007 	strb.w	r3, [sp, #7]
  SYSTEM_ChipRevisionGet(&chipRev);
     1ce:	ab01      	add	r3, sp, #4
     1d0:	4618      	mov	r0, r3
     1d2:	f003 fa53 	bl	367c <SYSTEM_ChipRevisionGet>

  if ((prodRev >= 16) && (chipRev.minor >= 3)) {
     1d6:	f89d 3007 	ldrb.w	r3, [sp, #7]
     1da:	2b0f      	cmp	r3, #15
     1dc:	d90b      	bls.n	1f6 <CHIP_Init+0x36>
     1de:	f89d 3004 	ldrb.w	r3, [sp, #4]
     1e2:	2b02      	cmp	r3, #2
     1e4:	d907      	bls.n	1f6 <CHIP_Init+0x36>
    /* This fixes an issue with the LFXO on high temperatures. */
    *(volatile uint32_t*)0x400C80C0 =
     1e6:	4a06      	ldr	r2, [pc, #24]	; (200 <CHIP_Init+0x40>)
      (*(volatile uint32_t*)0x400C80C0 & ~(1 << 6) ) | (1 << 4);
     1e8:	4b05      	ldr	r3, [pc, #20]	; (200 <CHIP_Init+0x40>)
     1ea:	681b      	ldr	r3, [r3, #0]
     1ec:	f023 0350 	bic.w	r3, r3, #80	; 0x50
     1f0:	f043 0310 	orr.w	r3, r3, #16
  prodRev = SYSTEM_GetProdRev();
  SYSTEM_ChipRevisionGet(&chipRev);

  if ((prodRev >= 16) && (chipRev.minor >= 3)) {
    /* This fixes an issue with the LFXO on high temperatures. */
    *(volatile uint32_t*)0x400C80C0 =
     1f4:	6013      	str	r3, [r2, #0]
#endif

#if defined(_EFR_DEVICE) && (_SILICON_LABS_GECKO_INTERNAL_SDID >= 84)
  MSC->CTRL |= 0x1 << 8;
#endif
}
     1f6:	bf00      	nop
     1f8:	b003      	add	sp, #12
     1fa:	f85d fb04 	ldr.w	pc, [sp], #4
     1fe:	bf00      	nop
     200:	400c80c0 	.word	0x400c80c0

00000204 <reset_blink>:
#include "em_cmu.h"
#include "em_gpio.h"

#include "communicator.h"

void reset_blink() {
     204:	b500      	push	{lr}
     206:	b083      	sub	sp, #12
	volatile long i;
	GPIO_PinModeSet(gpioPortE, 2, gpioModePushPull, 1);
     208:	2301      	movs	r3, #1
     20a:	2204      	movs	r2, #4
     20c:	2102      	movs	r1, #2
     20e:	2004      	movs	r0, #4
     210:	f003 f998 	bl	3544 <GPIO_PinModeSet>
	for(i = 0; i < 1000000; i++);
     214:	2300      	movs	r3, #0
     216:	9301      	str	r3, [sp, #4]
     218:	e002      	b.n	220 <reset_blink+0x1c>
     21a:	9b01      	ldr	r3, [sp, #4]
     21c:	3301      	adds	r3, #1
     21e:	9301      	str	r3, [sp, #4]
     220:	9b01      	ldr	r3, [sp, #4]
     222:	4a06      	ldr	r2, [pc, #24]	; (23c <reset_blink+0x38>)
     224:	4293      	cmp	r3, r2
     226:	ddf8      	ble.n	21a <reset_blink+0x16>
	GPIO_PinModeSet(gpioPortE, 2, gpioModePushPull, 0);
     228:	2300      	movs	r3, #0
     22a:	2204      	movs	r2, #4
     22c:	2102      	movs	r1, #2
     22e:	2004      	movs	r0, #4
     230:	f003 f988 	bl	3544 <GPIO_PinModeSet>
}
     234:	bf00      	nop
     236:	b003      	add	sp, #12
     238:	f85d fb04 	ldr.w	pc, [sp], #4
     23c:	000f423f 	.word	0x000f423f

00000240 <main>:

int main(void) {
     240:	b508      	push	{r3, lr}
	CHIP_Init();
     242:	f7ff ffbd 	bl	1c0 <CHIP_Init>
	CMU_ClockEnable(cmuClock_GPIO, true);
     246:	2101      	movs	r1, #1
     248:	4804      	ldr	r0, [pc, #16]	; (25c <main+0x1c>)
     24a:	f002 fa2d 	bl	26a8 <CMU_ClockEnable>

	reset_blink();
     24e:	f7ff ffd9 	bl	204 <reset_blink>
	setup_project();
     252:	f001 fec7 	bl	1fe4 <setup_project>

	return 0;
     256:	2300      	movs	r3, #0
}
     258:	4618      	mov	r0, r3
     25a:	bd08      	pop	{r3, pc}
     25c:	0004d200 	.word	0x0004d200

00000260 <setup_LCD>:

uint8_t buffer[TOTAL_BUFFER_SIZE];
uint8_t display_mode_buffer	= 0b00000000;
uint8_t clear_mode_buffer	= 0b00000100;

void setup_LCD() {
     260:	b500      	push	{lr}
     262:	b083      	sub	sp, #12
	init_spi();									//Setup SPI
     264:	f000 f9d6 	bl	614 <init_spi>
	reset();
     268:	f000 f84e 	bl	308 <reset>
	buffer[0] = 0b00000011;								//Set data update mode
     26c:	4b15      	ldr	r3, [pc, #84]	; (2c4 <setup_LCD+0x64>)
     26e:	2203      	movs	r2, #3
     270:	701a      	strb	r2, [r3, #0]
	for(int i = 0; i < HEIGHT; i++) buffer[1 + i*(W_BYTES + 2)] = i + 1;		//Set address lines in buffer
     272:	2300      	movs	r3, #0
     274:	9301      	str	r3, [sp, #4]
     276:	e00e      	b.n	296 <setup_LCD+0x36>
     278:	9a01      	ldr	r2, [sp, #4]
     27a:	4613      	mov	r3, r2
     27c:	00db      	lsls	r3, r3, #3
     27e:	4413      	add	r3, r2
     280:	005b      	lsls	r3, r3, #1
     282:	3301      	adds	r3, #1
     284:	9a01      	ldr	r2, [sp, #4]
     286:	b2d2      	uxtb	r2, r2
     288:	3201      	adds	r2, #1
     28a:	b2d1      	uxtb	r1, r2
     28c:	4a0d      	ldr	r2, [pc, #52]	; (2c4 <setup_LCD+0x64>)
     28e:	54d1      	strb	r1, [r2, r3]
     290:	9b01      	ldr	r3, [sp, #4]
     292:	3301      	adds	r3, #1
     294:	9301      	str	r3, [sp, #4]
     296:	9b01      	ldr	r3, [sp, #4]
     298:	2b7f      	cmp	r3, #127	; 0x7f
     29a:	dded      	ble.n	278 <setup_LCD+0x18>
	for(int i = 0; i < 2; i++) buffer[(W_BYTES * HEIGHT) + HEIGHT*2 + 1 + i] = 0x0;	//Zero dummy bytes
     29c:	2300      	movs	r3, #0
     29e:	9300      	str	r3, [sp, #0]
     2a0:	e008      	b.n	2b4 <setup_LCD+0x54>
     2a2:	9b00      	ldr	r3, [sp, #0]
     2a4:	f603 1301 	addw	r3, r3, #2305	; 0x901
     2a8:	4a06      	ldr	r2, [pc, #24]	; (2c4 <setup_LCD+0x64>)
     2aa:	2100      	movs	r1, #0
     2ac:	54d1      	strb	r1, [r2, r3]
     2ae:	9b00      	ldr	r3, [sp, #0]
     2b0:	3301      	adds	r3, #1
     2b2:	9300      	str	r3, [sp, #0]
     2b4:	9b00      	ldr	r3, [sp, #0]
     2b6:	2b01      	cmp	r3, #1
     2b8:	ddf3      	ble.n	2a2 <setup_LCD+0x42>
}
     2ba:	bf00      	nop
     2bc:	b003      	add	sp, #12
     2be:	f85d fb04 	ldr.w	pc, [sp], #4
     2c2:	bf00      	nop
     2c4:	200007a0 	.word	0x200007a0

000002c8 <update>:

void update() {
     2c8:	b508      	push	{r3, lr}
	send_buffer(buffer, TOTAL_BUFFER_SIZE);
     2ca:	f640 1103 	movw	r1, #2307	; 0x903
     2ce:	4803      	ldr	r0, [pc, #12]	; (2dc <update+0x14>)
     2d0:	f000 f9b4 	bl	63c <send_buffer>
	enter_display_mode();
     2d4:	f000 f804 	bl	2e0 <enter_display_mode>
}
     2d8:	bf00      	nop
     2da:	bd08      	pop	{r3, pc}
     2dc:	200007a0 	.word	0x200007a0

000002e0 <enter_display_mode>:

void enter_display_mode() {
     2e0:	b508      	push	{r3, lr}
	send_buffer(&display_mode_buffer, 1);
     2e2:	2101      	movs	r1, #1
     2e4:	4802      	ldr	r0, [pc, #8]	; (2f0 <enter_display_mode+0x10>)
     2e6:	f000 f9a9 	bl	63c <send_buffer>
}
     2ea:	bf00      	nop
     2ec:	bd08      	pop	{r3, pc}
     2ee:	bf00      	nop
     2f0:	20000670 	.word	0x20000670

000002f4 <clear>:

void clear() {
     2f4:	b508      	push	{r3, lr}
	send_buffer(&clear_mode_buffer, 1);
     2f6:	2101      	movs	r1, #1
     2f8:	4802      	ldr	r0, [pc, #8]	; (304 <clear+0x10>)
     2fa:	f000 f99f 	bl	63c <send_buffer>
}
     2fe:	bf00      	nop
     300:	bd08      	pop	{r3, pc}
     302:	bf00      	nop
     304:	20000000 	.word	0x20000000

00000308 <reset>:

void reset() {
     308:	b500      	push	{lr}
     30a:	b083      	sub	sp, #12
	clear();
     30c:	f7ff fff2 	bl	2f4 <clear>
	uint8_t clear = 0x00;
     310:	2300      	movs	r3, #0
     312:	f88d 3003 	strb.w	r3, [sp, #3]
	for(int i = 0; i < HEIGHT; i++) memset(buffer + 2 + i*(W_BYTES + 2), clear, W_BYTES);
     316:	2300      	movs	r3, #0
     318:	9301      	str	r3, [sp, #4]
     31a:	e010      	b.n	33e <reset+0x36>
     31c:	9a01      	ldr	r2, [sp, #4]
     31e:	4613      	mov	r3, r2
     320:	00db      	lsls	r3, r3, #3
     322:	4413      	add	r3, r2
     324:	005b      	lsls	r3, r3, #1
     326:	3302      	adds	r3, #2
     328:	4a08      	ldr	r2, [pc, #32]	; (34c <reset+0x44>)
     32a:	4413      	add	r3, r2
     32c:	f89d 1003 	ldrb.w	r1, [sp, #3]
     330:	2210      	movs	r2, #16
     332:	4618      	mov	r0, r3
     334:	f004 f9ea 	bl	470c <memset>
     338:	9b01      	ldr	r3, [sp, #4]
     33a:	3301      	adds	r3, #1
     33c:	9301      	str	r3, [sp, #4]
     33e:	9b01      	ldr	r3, [sp, #4]
     340:	2b7f      	cmp	r3, #127	; 0x7f
     342:	ddeb      	ble.n	31c <reset+0x14>
}
     344:	bf00      	nop
     346:	b003      	add	sp, #12
     348:	f85d fb04 	ldr.w	pc, [sp], #4
     34c:	200007a0 	.word	0x200007a0

00000350 <get_buffer>:
	} else {buffer[byte_index] = buffer[byte_index] | pixel_mask;}
}

unsigned int pos_to_buffer_pos(unsigned int pos) {return pos + 2 + (pos / W_BYTES)*2;}

uint8_t *get_buffer() {return buffer;}
     350:	4b01      	ldr	r3, [pc, #4]	; (358 <get_buffer+0x8>)
     352:	4618      	mov	r0, r3
     354:	4770      	bx	lr
     356:	bf00      	nop
     358:	200007a0 	.word	0x200007a0

0000035c <SPI_setup>:
 * @brief Setup a USART as SPI
 * @param spiNumber is the number of the USART to use (e.g. 1 USART1)
 * @param location is the GPIO location to use for the device
 * @param master set if the SPI is to be master
 *****************************************************************************/
void SPI_setup(uint8_t spiNumber, uint8_t location, bool master) {
     35c:	b500      	push	{lr}
     35e:	b085      	sub	sp, #20
     360:	4603      	mov	r3, r0
     362:	f88d 3007 	strb.w	r3, [sp, #7]
     366:	460b      	mov	r3, r1
     368:	f88d 3006 	strb.w	r3, [sp, #6]
     36c:	4613      	mov	r3, r2
     36e:	f88d 3005 	strb.w	r3, [sp, #5]
  USART_TypeDef *spi;

  /* Determining USART */
  switch (spiNumber) {
     372:	f89d 3007 	ldrb.w	r3, [sp, #7]
     376:	2b01      	cmp	r3, #1
     378:	d007      	beq.n	38a <SPI_setup+0x2e>
     37a:	2b02      	cmp	r3, #2
     37c:	d008      	beq.n	390 <SPI_setup+0x34>
     37e:	2b00      	cmp	r3, #0
     380:	d000      	beq.n	384 <SPI_setup+0x28>
    break;
  case 2:
    spi = USART2;
    break;
  default:
    return;
     382:	e13d      	b.n	600 <Stack_Size+0x200>
  USART_TypeDef *spi;

  /* Determining USART */
  switch (spiNumber) {
  case 0:
    spi = USART0;
     384:	4ba0      	ldr	r3, [pc, #640]	; (608 <Stack_Size+0x208>)
     386:	9303      	str	r3, [sp, #12]
    break;
     388:	e005      	b.n	396 <SPI_setup+0x3a>
  case 1:
    spi = USART1;
     38a:	4ba0      	ldr	r3, [pc, #640]	; (60c <Stack_Size+0x20c>)
     38c:	9303      	str	r3, [sp, #12]
    break;
     38e:	e002      	b.n	396 <SPI_setup+0x3a>
  case 2:
    spi = USART2;
     390:	4b9f      	ldr	r3, [pc, #636]	; (610 <Stack_Size+0x210>)
     392:	9303      	str	r3, [sp, #12]
    break;
     394:	bf00      	nop
  default:
    return;
  }

  /* Setting baudrate */
  spi->CLKDIV = 128 * (SPI_PERCLK_FREQUENCY / SPI_BAUDRATE - 2);
     396:	9b03      	ldr	r3, [sp, #12]
     398:	f44f 62c0 	mov.w	r2, #1536	; 0x600
     39c:	615a      	str	r2, [r3, #20]

  /* Configure SPI */
  /* Using synchronous (SPI) mode*/
  spi->CTRL = USART_CTRL_SYNC;
     39e:	9b03      	ldr	r3, [sp, #12]
     3a0:	2201      	movs	r2, #1
     3a2:	601a      	str	r2, [r3, #0]
  /* Clearing old transfers/receptions, and disabling interrupts */
  spi->CMD = USART_CMD_CLEARRX | USART_CMD_CLEARTX;
     3a4:	9b03      	ldr	r3, [sp, #12]
     3a6:	f44f 6240 	mov.w	r2, #3072	; 0xc00
     3aa:	60da      	str	r2, [r3, #12]
  spi->IEN = 0;
     3ac:	9b03      	ldr	r3, [sp, #12]
     3ae:	2200      	movs	r2, #0
     3b0:	64da      	str	r2, [r3, #76]	; 0x4c
  /* Enabling pins and setting location */
  //spi->ROUTE = /*USART_ROUTE_TXPEN /*| USART_ROUTE_RXPEN |*/ USART_ROUTE_CLKPEN /*| USART_ROUTE_CSPEN*/ | (location << 8);
  spi->ROUTE = USART_ROUTE_TXPEN;
     3b2:	9b03      	ldr	r3, [sp, #12]
     3b4:	2202      	movs	r2, #2
     3b6:	655a      	str	r2, [r3, #84]	; 0x54
  spi->ROUTE |= USART_ROUTE_CLKPEN;
     3b8:	9b03      	ldr	r3, [sp, #12]
     3ba:	6d5b      	ldr	r3, [r3, #84]	; 0x54
     3bc:	f043 0208 	orr.w	r2, r3, #8
     3c0:	9b03      	ldr	r3, [sp, #12]
     3c2:	655a      	str	r2, [r3, #84]	; 0x54
  spi->ROUTE |= location << 8;
     3c4:	9b03      	ldr	r3, [sp, #12]
     3c6:	6d5b      	ldr	r3, [r3, #84]	; 0x54
     3c8:	f89d 2006 	ldrb.w	r2, [sp, #6]
     3cc:	0212      	lsls	r2, r2, #8
     3ce:	431a      	orrs	r2, r3
     3d0:	9b03      	ldr	r3, [sp, #12]
     3d2:	655a      	str	r2, [r3, #84]	; 0x54

  /* Set GPIO config to slave */
  GPIO_Mode_TypeDef gpioModeMosi = gpioModeInput;
     3d4:	2301      	movs	r3, #1
     3d6:	f88d 300b 	strb.w	r3, [sp, #11]
  GPIO_Mode_TypeDef gpioModeMiso = gpioModePushPull;
     3da:	2304      	movs	r3, #4
     3dc:	f88d 300a 	strb.w	r3, [sp, #10]
  GPIO_Mode_TypeDef gpioModeCs   = gpioModeInput;
     3e0:	2301      	movs	r3, #1
     3e2:	f88d 3009 	strb.w	r3, [sp, #9]
  GPIO_Mode_TypeDef gpioModeClk  = gpioModeInput;
     3e6:	2301      	movs	r3, #1
     3e8:	f88d 3008 	strb.w	r3, [sp, #8]

  /* Set to master and to control the CS line */
  if (master) {
     3ec:	f89d 3005 	ldrb.w	r3, [sp, #5]
     3f0:	2b00      	cmp	r3, #0
     3f2:	d00f      	beq.n	414 <Stack_Size+0x14>
    /* Enabling Master, TX and RX */
    spi->CMD   = USART_CMD_MASTEREN | USART_CMD_TXEN;// | USART_CMD_RXEN;
     3f4:	9b03      	ldr	r3, [sp, #12]
     3f6:	2214      	movs	r2, #20
     3f8:	60da      	str	r2, [r3, #12]
    //spi->CTRL |= USART_CTRL_AUTOCS;

    /* Set GPIO config to master */
    gpioModeMosi = gpioModePushPull;
     3fa:	2304      	movs	r3, #4
     3fc:	f88d 300b 	strb.w	r3, [sp, #11]
    gpioModeMiso = gpioModeInput;
     400:	2301      	movs	r3, #1
     402:	f88d 300a 	strb.w	r3, [sp, #10]
    gpioModeCs   = gpioModePushPull;
     406:	2304      	movs	r3, #4
     408:	f88d 3009 	strb.w	r3, [sp, #9]
    gpioModeClk  = gpioModePushPull;
     40c:	2304      	movs	r3, #4
     40e:	f88d 3008 	strb.w	r3, [sp, #8]
     412:	e002      	b.n	41a <Stack_Size+0x1a>
  }
  else
  {
    /* Enabling TX and RX */
    spi->CMD = USART_CMD_TXEN | USART_CMD_RXEN;
     414:	9b03      	ldr	r3, [sp, #12]
     416:	2205      	movs	r2, #5
     418:	60da      	str	r2, [r3, #12]
  }

  /* Clear previous interrupts */
  spi->IFC = _USART_IFC_MASK;
     41a:	9b03      	ldr	r3, [sp, #12]
     41c:	f641 72f9 	movw	r2, #8185	; 0x1ff9
     420:	649a      	str	r2, [r3, #72]	; 0x48

  /* IO configuration */
  switch(spiNumber) {
     422:	f89d 3007 	ldrb.w	r3, [sp, #7]
     426:	2b01      	cmp	r3, #1
     428:	d066      	beq.n	4f8 <Stack_Size+0xf8>
     42a:	2b02      	cmp	r3, #2
     42c:	f000 80a6 	beq.w	57c <Stack_Size+0x17c>
     430:	2b00      	cmp	r3, #0
     432:	d000      	beq.n	436 <Stack_Size+0x36>
                      GPIO_PinModeSet(gpioPortB, 5, gpioModeClk,  0);  /* Clock */
                      break;
            default: break;
            }
            break;
    default: break;
     434:	e0e4      	b.n	600 <Stack_Size+0x200>
  /* Clear previous interrupts */
  spi->IFC = _USART_IFC_MASK;

  /* IO configuration */
  switch(spiNumber) {
    case 0: switch(location) {
     436:	f89d 3006 	ldrb.w	r3, [sp, #6]
     43a:	2b01      	cmp	r3, #1
     43c:	d021      	beq.n	482 <Stack_Size+0x82>
     43e:	2b02      	cmp	r3, #2
     440:	d03c      	beq.n	4bc <Stack_Size+0xbc>
     442:	2b00      	cmp	r3, #0
     444:	d000      	beq.n	448 <Stack_Size+0x48>
                      GPIO_PinModeSet(gpioPortC, 11, gpioModeMosi, 0); /* MOSI */
                      GPIO_PinModeSet(gpioPortC, 10, gpioModeMiso, 0); /* MISO */
                      GPIO_PinModeSet(gpioPortC,  8, gpioModeCs,   0); /* CS */
                      GPIO_PinModeSet(gpioPortC,  9, gpioModeClk,  0); /* Clock */
                      break;
            default: break;
     446:	e056      	b.n	4f6 <Stack_Size+0xf6>

  /* IO configuration */
  switch(spiNumber) {
    case 0: switch(location) {
              case 0: /* IO configuration (USART 0, Location #0) */
                      GPIO_PinModeSet(gpioPortE, 10, gpioModeMosi, 0); /* MOSI */
     448:	f89d 200b 	ldrb.w	r2, [sp, #11]
     44c:	2300      	movs	r3, #0
     44e:	210a      	movs	r1, #10
     450:	2004      	movs	r0, #4
     452:	f003 f877 	bl	3544 <GPIO_PinModeSet>
                      GPIO_PinModeSet(gpioPortE, 11, gpioModeMiso, 0); /* MISO */
     456:	f89d 200a 	ldrb.w	r2, [sp, #10]
     45a:	2300      	movs	r3, #0
     45c:	210b      	movs	r1, #11
     45e:	2004      	movs	r0, #4
     460:	f003 f870 	bl	3544 <GPIO_PinModeSet>
                      GPIO_PinModeSet(gpioPortE, 13, gpioModeCs,   0); /* CS */
     464:	f89d 2009 	ldrb.w	r2, [sp, #9]
     468:	2300      	movs	r3, #0
     46a:	210d      	movs	r1, #13
     46c:	2004      	movs	r0, #4
     46e:	f003 f869 	bl	3544 <GPIO_PinModeSet>
                      GPIO_PinModeSet(gpioPortE, 12, gpioModeClk,  0); /* Clock */
     472:	f89d 2008 	ldrb.w	r2, [sp, #8]
     476:	2300      	movs	r3, #0
     478:	210c      	movs	r1, #12
     47a:	2004      	movs	r0, #4
     47c:	f003 f862 	bl	3544 <GPIO_PinModeSet>
                      break;
     480:	e039      	b.n	4f6 <Stack_Size+0xf6>
              case 1: /* IO configuration (USART 0, Location #1) */
                      GPIO_PinModeSet(gpioPortE, 7, gpioModeMosi, 0);  /* MOSI */
     482:	f89d 200b 	ldrb.w	r2, [sp, #11]
     486:	2300      	movs	r3, #0
     488:	2107      	movs	r1, #7
     48a:	2004      	movs	r0, #4
     48c:	f003 f85a 	bl	3544 <GPIO_PinModeSet>
                      GPIO_PinModeSet(gpioPortE, 6, gpioModeMiso, 0);  /* MISO */
     490:	f89d 200a 	ldrb.w	r2, [sp, #10]
     494:	2300      	movs	r3, #0
     496:	2106      	movs	r1, #6
     498:	2004      	movs	r0, #4
     49a:	f003 f853 	bl	3544 <GPIO_PinModeSet>
                      GPIO_PinModeSet(gpioPortE, 4, gpioModeCs,   0);  /* CS */
     49e:	f89d 2009 	ldrb.w	r2, [sp, #9]
     4a2:	2300      	movs	r3, #0
     4a4:	2104      	movs	r1, #4
     4a6:	2004      	movs	r0, #4
     4a8:	f003 f84c 	bl	3544 <GPIO_PinModeSet>
                      GPIO_PinModeSet(gpioPortE, 5, gpioModeClk,  0);  /* Clock */
     4ac:	f89d 2008 	ldrb.w	r2, [sp, #8]
     4b0:	2300      	movs	r3, #0
     4b2:	2105      	movs	r1, #5
     4b4:	2004      	movs	r0, #4
     4b6:	f003 f845 	bl	3544 <GPIO_PinModeSet>
                      break;
     4ba:	e01c      	b.n	4f6 <Stack_Size+0xf6>
              case 2: /* IO configuration (USART 0, Location #2) */
                      GPIO_PinModeSet(gpioPortC, 11, gpioModeMosi, 0); /* MOSI */
     4bc:	f89d 200b 	ldrb.w	r2, [sp, #11]
     4c0:	2300      	movs	r3, #0
     4c2:	210b      	movs	r1, #11
     4c4:	2002      	movs	r0, #2
     4c6:	f003 f83d 	bl	3544 <GPIO_PinModeSet>
                      GPIO_PinModeSet(gpioPortC, 10, gpioModeMiso, 0); /* MISO */
     4ca:	f89d 200a 	ldrb.w	r2, [sp, #10]
     4ce:	2300      	movs	r3, #0
     4d0:	210a      	movs	r1, #10
     4d2:	2002      	movs	r0, #2
     4d4:	f003 f836 	bl	3544 <GPIO_PinModeSet>
                      GPIO_PinModeSet(gpioPortC,  8, gpioModeCs,   0); /* CS */
     4d8:	f89d 2009 	ldrb.w	r2, [sp, #9]
     4dc:	2300      	movs	r3, #0
     4de:	2108      	movs	r1, #8
     4e0:	2002      	movs	r0, #2
     4e2:	f003 f82f 	bl	3544 <GPIO_PinModeSet>
                      GPIO_PinModeSet(gpioPortC,  9, gpioModeClk,  0); /* Clock */
     4e6:	f89d 2008 	ldrb.w	r2, [sp, #8]
     4ea:	2300      	movs	r3, #0
     4ec:	2109      	movs	r1, #9
     4ee:	2002      	movs	r0, #2
     4f0:	f003 f828 	bl	3544 <GPIO_PinModeSet>
                      break;
     4f4:	bf00      	nop
            default: break;
            }
            break;
     4f6:	e083      	b.n	600 <Stack_Size+0x200>
    case 1: switch(location) {
     4f8:	f89d 3006 	ldrb.w	r3, [sp, #6]
     4fc:	2b00      	cmp	r3, #0
     4fe:	d002      	beq.n	506 <Stack_Size+0x106>
     500:	2b01      	cmp	r3, #1
     502:	d01d      	beq.n	540 <Stack_Size+0x140>
                      GPIO_PinModeSet(gpioPortD, 0, gpioModeMosi, 0);  /* MOSI */
                      GPIO_PinModeSet(gpioPortD, 1, gpioModeMiso, 0);  /* MISO */
                      GPIO_PinModeSet(gpioPortD, 3, gpioModeCs,   0);  /* CS */
                      GPIO_PinModeSet(gpioPortD, 2, gpioModeClk,  0);  /* Clock */
                      break;
            default: break;
     504:	e039      	b.n	57a <Stack_Size+0x17a>
            default: break;
            }
            break;
    case 1: switch(location) {
              case 0: /* IO configuration (USART 1, Location #0) */
                      GPIO_PinModeSet(gpioPortC, 0, gpioModeMosi, 0);  /* MOSI */
     506:	f89d 200b 	ldrb.w	r2, [sp, #11]
     50a:	2300      	movs	r3, #0
     50c:	2100      	movs	r1, #0
     50e:	2002      	movs	r0, #2
     510:	f003 f818 	bl	3544 <GPIO_PinModeSet>
                      GPIO_PinModeSet(gpioPortC, 1, gpioModeMiso, 0);  /* MISO */
     514:	f89d 200a 	ldrb.w	r2, [sp, #10]
     518:	2300      	movs	r3, #0
     51a:	2101      	movs	r1, #1
     51c:	2002      	movs	r0, #2
     51e:	f003 f811 	bl	3544 <GPIO_PinModeSet>
                      GPIO_PinModeSet(gpioPortB, 8, gpioModeCs,   0);  /* CS */
     522:	f89d 2009 	ldrb.w	r2, [sp, #9]
     526:	2300      	movs	r3, #0
     528:	2108      	movs	r1, #8
     52a:	2001      	movs	r0, #1
     52c:	f003 f80a 	bl	3544 <GPIO_PinModeSet>
                      GPIO_PinModeSet(gpioPortB, 7, gpioModeClk,  0);  /* Clock */
     530:	f89d 2008 	ldrb.w	r2, [sp, #8]
     534:	2300      	movs	r3, #0
     536:	2107      	movs	r1, #7
     538:	2001      	movs	r0, #1
     53a:	f003 f803 	bl	3544 <GPIO_PinModeSet>
                      break;
     53e:	e01c      	b.n	57a <Stack_Size+0x17a>
              case 1: /* IO configuration (USART 1, Location #1) */
                      GPIO_PinModeSet(gpioPortD, 0, gpioModeMosi, 0);  /* MOSI */
     540:	f89d 200b 	ldrb.w	r2, [sp, #11]
     544:	2300      	movs	r3, #0
     546:	2100      	movs	r1, #0
     548:	2003      	movs	r0, #3
     54a:	f002 fffb 	bl	3544 <GPIO_PinModeSet>
                      GPIO_PinModeSet(gpioPortD, 1, gpioModeMiso, 0);  /* MISO */
     54e:	f89d 200a 	ldrb.w	r2, [sp, #10]
     552:	2300      	movs	r3, #0
     554:	2101      	movs	r1, #1
     556:	2003      	movs	r0, #3
     558:	f002 fff4 	bl	3544 <GPIO_PinModeSet>
                      GPIO_PinModeSet(gpioPortD, 3, gpioModeCs,   0);  /* CS */
     55c:	f89d 2009 	ldrb.w	r2, [sp, #9]
     560:	2300      	movs	r3, #0
     562:	2103      	movs	r1, #3
     564:	2003      	movs	r0, #3
     566:	f002 ffed 	bl	3544 <GPIO_PinModeSet>
                      GPIO_PinModeSet(gpioPortD, 2, gpioModeClk,  0);  /* Clock */
     56a:	f89d 2008 	ldrb.w	r2, [sp, #8]
     56e:	2300      	movs	r3, #0
     570:	2102      	movs	r1, #2
     572:	2003      	movs	r0, #3
     574:	f002 ffe6 	bl	3544 <GPIO_PinModeSet>
                      break;
     578:	bf00      	nop
            default: break;
            }
            break;
     57a:	e041      	b.n	600 <Stack_Size+0x200>
    case 2: switch(location) {
     57c:	f89d 3006 	ldrb.w	r3, [sp, #6]
     580:	2b00      	cmp	r3, #0
     582:	d002      	beq.n	58a <Stack_Size+0x18a>
     584:	2b01      	cmp	r3, #1
     586:	d01d      	beq.n	5c4 <Stack_Size+0x1c4>
                      GPIO_PinModeSet(gpioPortB, 3, gpioModeMosi, 0);  /* MOSI */
                      GPIO_PinModeSet(gpioPortB, 4, gpioModeMiso, 0);  /* MISO */
                      GPIO_PinModeSet(gpioPortB, 6, gpioModeCs,   0);  /* CS */
                      GPIO_PinModeSet(gpioPortB, 5, gpioModeClk,  0);  /* Clock */
                      break;
            default: break;
     588:	e039      	b.n	5fe <Stack_Size+0x1fe>
            default: break;
            }
            break;
    case 2: switch(location) {
              case 0: /* IO configuration (USART 2, Location #0) */
                      GPIO_PinModeSet(gpioPortC, 2, gpioModeMosi, 0);  /* MOSI */
     58a:	f89d 200b 	ldrb.w	r2, [sp, #11]
     58e:	2300      	movs	r3, #0
     590:	2102      	movs	r1, #2
     592:	2002      	movs	r0, #2
     594:	f002 ffd6 	bl	3544 <GPIO_PinModeSet>
                      GPIO_PinModeSet(gpioPortC, 3, gpioModeMiso, 0);  /* MISO */
     598:	f89d 200a 	ldrb.w	r2, [sp, #10]
     59c:	2300      	movs	r3, #0
     59e:	2103      	movs	r1, #3
     5a0:	2002      	movs	r0, #2
     5a2:	f002 ffcf 	bl	3544 <GPIO_PinModeSet>
                      GPIO_PinModeSet(gpioPortC, 5, gpioModeCs,   0);  /* CS */
     5a6:	f89d 2009 	ldrb.w	r2, [sp, #9]
     5aa:	2300      	movs	r3, #0
     5ac:	2105      	movs	r1, #5
     5ae:	2002      	movs	r0, #2
     5b0:	f002 ffc8 	bl	3544 <GPIO_PinModeSet>
                      GPIO_PinModeSet(gpioPortC, 4, gpioModeClk,  0);  /* Clock */
     5b4:	f89d 2008 	ldrb.w	r2, [sp, #8]
     5b8:	2300      	movs	r3, #0
     5ba:	2104      	movs	r1, #4
     5bc:	2002      	movs	r0, #2
     5be:	f002 ffc1 	bl	3544 <GPIO_PinModeSet>
                      break;
     5c2:	e01c      	b.n	5fe <Stack_Size+0x1fe>
              case 1: /* IO configuration (USART 2, Location #1) */
                      GPIO_PinModeSet(gpioPortB, 3, gpioModeMosi, 0);  /* MOSI */
     5c4:	f89d 200b 	ldrb.w	r2, [sp, #11]
     5c8:	2300      	movs	r3, #0
     5ca:	2103      	movs	r1, #3
     5cc:	2001      	movs	r0, #1
     5ce:	f002 ffb9 	bl	3544 <GPIO_PinModeSet>
                      GPIO_PinModeSet(gpioPortB, 4, gpioModeMiso, 0);  /* MISO */
     5d2:	f89d 200a 	ldrb.w	r2, [sp, #10]
     5d6:	2300      	movs	r3, #0
     5d8:	2104      	movs	r1, #4
     5da:	2001      	movs	r0, #1
     5dc:	f002 ffb2 	bl	3544 <GPIO_PinModeSet>
                      GPIO_PinModeSet(gpioPortB, 6, gpioModeCs,   0);  /* CS */
     5e0:	f89d 2009 	ldrb.w	r2, [sp, #9]
     5e4:	2300      	movs	r3, #0
     5e6:	2106      	movs	r1, #6
     5e8:	2001      	movs	r0, #1
     5ea:	f002 ffab 	bl	3544 <GPIO_PinModeSet>
                      GPIO_PinModeSet(gpioPortB, 5, gpioModeClk,  0);  /* Clock */
     5ee:	f89d 2008 	ldrb.w	r2, [sp, #8]
     5f2:	2300      	movs	r3, #0
     5f4:	2105      	movs	r1, #5
     5f6:	2001      	movs	r0, #1
     5f8:	f002 ffa4 	bl	3544 <GPIO_PinModeSet>
                      break;
     5fc:	bf00      	nop
            default: break;
            }
            break;
     5fe:	bf00      	nop
    default: break;
  }
}
     600:	b005      	add	sp, #20
     602:	f85d fb04 	ldr.w	pc, [sp], #4
     606:	bf00      	nop
     608:	4000c000 	.word	0x4000c000
     60c:	4000c400 	.word	0x4000c400
     610:	4000c800 	.word	0x4000c800

00000614 <init_spi>:
#include "em_cmu.h"
#include "em_gpio.h"
#include "spi.h"
#include "usart.h"

void init_spi() {
     614:	b508      	push	{r3, lr}
	CMU_ClockEnable(cmuClock_USART1, true);
     616:	2101      	movs	r1, #1
     618:	4806      	ldr	r0, [pc, #24]	; (634 <init_spi+0x20>)
     61a:	f002 f845 	bl	26a8 <CMU_ClockEnable>
	CMU_ClockEnable(cmuClock_GPIO, true);
     61e:	2101      	movs	r1, #1
     620:	4805      	ldr	r0, [pc, #20]	; (638 <init_spi+0x24>)
     622:	f002 f841 	bl	26a8 <CMU_ClockEnable>

	SPI_setup(USART1_NUM, GPIO_POS1, true);
     626:	2201      	movs	r2, #1
     628:	2101      	movs	r1, #1
     62a:	2001      	movs	r0, #1
     62c:	f7ff fe96 	bl	35c <SPI_setup>
}
     630:	bf00      	nop
     632:	bd08      	pop	{r3, pc}
     634:	00041200 	.word	0x00041200
     638:	0004d200 	.word	0x0004d200

0000063c <send_buffer>:

void send_buffer(char *buffer, unsigned long size) {
     63c:	b500      	push	{lr}
     63e:	b083      	sub	sp, #12
     640:	9001      	str	r0, [sp, #4]
     642:	9100      	str	r1, [sp, #0]
	USART1_sendBuffer(buffer, size);
     644:	9b00      	ldr	r3, [sp, #0]
     646:	4619      	mov	r1, r3
     648:	9801      	ldr	r0, [sp, #4]
     64a:	f000 f805 	bl	658 <USART1_sendBuffer>
}
     64e:	bf00      	nop
     650:	b003      	add	sp, #12
     652:	f85d fb04 	ldr.w	pc, [sp], #4
     656:	bf00      	nop

00000658 <USART1_sendBuffer>:

  /*Waiting for transmission of last byte */
  while (!(uart->STATUS & USART_STATUS_TXC)) ;
}

void USART1_sendBuffer(char* txBuffer, int bytesToSend) {
     658:	b500      	push	{lr}
     65a:	b085      	sub	sp, #20
     65c:	9001      	str	r0, [sp, #4]
     65e:	9100      	str	r1, [sp, #0]
	USART_TypeDef *uart = USART1;
     660:	4b1c      	ldr	r3, [pc, #112]	; (6d4 <USART1_sendBuffer+0x7c>)
     662:	9302      	str	r3, [sp, #8]
	int           i;

	/* Sending the data */
	GPIO_PinModeSet(gpioPortD, 3, gpioModePushPull, 1);
     664:	2301      	movs	r3, #1
     666:	2204      	movs	r2, #4
     668:	2103      	movs	r1, #3
     66a:	2003      	movs	r0, #3
     66c:	f002 ff6a 	bl	3544 <GPIO_PinModeSet>
	for (i = 0; i < bytesToSend;  i++) {
     670:	2300      	movs	r3, #0
     672:	9303      	str	r3, [sp, #12]
     674:	e018      	b.n	6a8 <USART1_sendBuffer+0x50>
		/* Waiting for the usart to be ready */
		while (!(uart->STATUS & USART_STATUS_TXBL));
     676:	bf00      	nop
     678:	9b02      	ldr	r3, [sp, #8]
     67a:	691b      	ldr	r3, [r3, #16]
     67c:	f003 0340 	and.w	r3, r3, #64	; 0x40
     680:	2b00      	cmp	r3, #0
     682:	d0f9      	beq.n	678 <USART1_sendBuffer+0x20>

		if (txBuffer != 0) {
     684:	9b01      	ldr	r3, [sp, #4]
     686:	2b00      	cmp	r3, #0
     688:	d008      	beq.n	69c <USART1_sendBuffer+0x44>
			/* Writing next byte to USART */
			uart->TXDATA = *txBuffer;
     68a:	9b01      	ldr	r3, [sp, #4]
     68c:	781b      	ldrb	r3, [r3, #0]
     68e:	461a      	mov	r2, r3
     690:	9b02      	ldr	r3, [sp, #8]
     692:	635a      	str	r2, [r3, #52]	; 0x34
			//GPIO_PinModeSet(gpioPortE, 2, gpioModePushPull, 1);
			txBuffer++;
     694:	9b01      	ldr	r3, [sp, #4]
     696:	3301      	adds	r3, #1
     698:	9301      	str	r3, [sp, #4]
     69a:	e002      	b.n	6a2 <USART1_sendBuffer+0x4a>
		} else {
			uart->TXDATA = 0;
     69c:	9b02      	ldr	r3, [sp, #8]
     69e:	2200      	movs	r2, #0
     6a0:	635a      	str	r2, [r3, #52]	; 0x34
	USART_TypeDef *uart = USART1;
	int           i;

	/* Sending the data */
	GPIO_PinModeSet(gpioPortD, 3, gpioModePushPull, 1);
	for (i = 0; i < bytesToSend;  i++) {
     6a2:	9b03      	ldr	r3, [sp, #12]
     6a4:	3301      	adds	r3, #1
     6a6:	9303      	str	r3, [sp, #12]
     6a8:	9a03      	ldr	r2, [sp, #12]
     6aa:	9b00      	ldr	r3, [sp, #0]
     6ac:	429a      	cmp	r2, r3
     6ae:	dbe2      	blt.n	676 <USART1_sendBuffer+0x1e>
			txBuffer++;
		} else {
			uart->TXDATA = 0;
		}
	}
	GPIO_PinModeSet(gpioPortD, 3, gpioModePushPull, 0);
     6b0:	2300      	movs	r3, #0
     6b2:	2204      	movs	r2, #4
     6b4:	2103      	movs	r1, #3
     6b6:	2003      	movs	r0, #3
     6b8:	f002 ff44 	bl	3544 <GPIO_PinModeSet>

	/*Waiting for transmission of last byte */
	while (!(uart->STATUS & USART_STATUS_TXC));
     6bc:	bf00      	nop
     6be:	9b02      	ldr	r3, [sp, #8]
     6c0:	691b      	ldr	r3, [r3, #16]
     6c2:	f003 0320 	and.w	r3, r3, #32
     6c6:	2b00      	cmp	r3, #0
     6c8:	d0f9      	beq.n	6be <USART1_sendBuffer+0x66>
}
     6ca:	bf00      	nop
     6cc:	b005      	add	sp, #20
     6ce:	f85d fb04 	ldr.w	pc, [sp], #4
     6d2:	bf00      	nop
     6d4:	4000c400 	.word	0x4000c400

000006d8 <validate_character>:

#define MIN(x, y)	(x <= y ? x : y)

#define EXTRA_CHARS ":.%\0"

bool validate_character(char c) {
     6d8:	b082      	sub	sp, #8
     6da:	4603      	mov	r3, r0
     6dc:	f88d 3007 	strb.w	r3, [sp, #7]
	return ((c - 'a' >= 0 && c - 'z' <= 0)
     6e0:	f89d 3007 	ldrb.w	r3, [sp, #7]
     6e4:	3b61      	subs	r3, #97	; 0x61
		|| (c - 'A' >= 0 && c - 'Z' <= 0)
		|| (c - '0' >= 0 && c - '9' <= 0)
		|| (c == ':' || c == '.' || c == '%') ? true : false);
     6e6:	2b00      	cmp	r3, #0
     6e8:	db04      	blt.n	6f4 <validate_character+0x1c>
#define MIN(x, y)	(x <= y ? x : y)

#define EXTRA_CHARS ":.%\0"

bool validate_character(char c) {
	return ((c - 'a' >= 0 && c - 'z' <= 0)
     6ea:	f89d 3007 	ldrb.w	r3, [sp, #7]
     6ee:	3b7a      	subs	r3, #122	; 0x7a
     6f0:	2b00      	cmp	r3, #0
     6f2:	dd1f      	ble.n	734 <validate_character+0x5c>
		|| (c - 'A' >= 0 && c - 'Z' <= 0)
     6f4:	f89d 3007 	ldrb.w	r3, [sp, #7]
     6f8:	3b41      	subs	r3, #65	; 0x41
     6fa:	2b00      	cmp	r3, #0
     6fc:	db04      	blt.n	708 <validate_character+0x30>
     6fe:	f89d 3007 	ldrb.w	r3, [sp, #7]
     702:	3b5a      	subs	r3, #90	; 0x5a
     704:	2b00      	cmp	r3, #0
     706:	dd15      	ble.n	734 <validate_character+0x5c>
		|| (c - '0' >= 0 && c - '9' <= 0)
     708:	f89d 3007 	ldrb.w	r3, [sp, #7]
     70c:	3b30      	subs	r3, #48	; 0x30
     70e:	2b00      	cmp	r3, #0
     710:	db04      	blt.n	71c <validate_character+0x44>
     712:	f89d 3007 	ldrb.w	r3, [sp, #7]
     716:	3b39      	subs	r3, #57	; 0x39
     718:	2b00      	cmp	r3, #0
     71a:	dd0b      	ble.n	734 <validate_character+0x5c>
		|| (c == ':' || c == '.' || c == '%') ? true : false);
     71c:	f89d 3007 	ldrb.w	r3, [sp, #7]
     720:	2b3a      	cmp	r3, #58	; 0x3a
     722:	d007      	beq.n	734 <validate_character+0x5c>
     724:	f89d 3007 	ldrb.w	r3, [sp, #7]
     728:	2b2e      	cmp	r3, #46	; 0x2e
     72a:	d003      	beq.n	734 <validate_character+0x5c>
     72c:	f89d 3007 	ldrb.w	r3, [sp, #7]
     730:	2b25      	cmp	r3, #37	; 0x25
     732:	d101      	bne.n	738 <validate_character+0x60>
     734:	2301      	movs	r3, #1
     736:	e000      	b.n	73a <validate_character+0x62>
     738:	2300      	movs	r3, #0
#define MIN(x, y)	(x <= y ? x : y)

#define EXTRA_CHARS ":.%\0"

bool validate_character(char c) {
	return ((c - 'a' >= 0 && c - 'z' <= 0)
     73a:	f003 0301 	and.w	r3, r3, #1
     73e:	b2db      	uxtb	r3, r3
		|| (c - 'A' >= 0 && c - 'Z' <= 0)
		|| (c - '0' >= 0 && c - '9' <= 0)
		|| (c == ':' || c == '.' || c == '%') ? true : false);
}
     740:	4618      	mov	r0, r3
     742:	b002      	add	sp, #8
     744:	4770      	bx	lr
     746:	bf00      	nop

00000748 <writef>:
	0b00111111,
	0b01111111,
	0b11111111
};

void writef(char *s, uint8_t *buffer, unsigned int x, unsigned int y, int flip, ...) {
     748:	e92d 43f0 	stmdb	sp!, {r4, r5, r6, r7, r8, r9, lr}
     74c:	b08b      	sub	sp, #44	; 0x2c
     74e:	af02      	add	r7, sp, #8
     750:	60f8      	str	r0, [r7, #12]
     752:	60b9      	str	r1, [r7, #8]
     754:	607a      	str	r2, [r7, #4]
     756:	603b      	str	r3, [r7, #0]
     758:	466b      	mov	r3, sp
     75a:	461e      	mov	r6, r3
	int writef_buffer_size = 32;
     75c:	2320      	movs	r3, #32
     75e:	61fb      	str	r3, [r7, #28]
	char buf[writef_buffer_size];
     760:	69f9      	ldr	r1, [r7, #28]
     762:	1e4b      	subs	r3, r1, #1
     764:	61bb      	str	r3, [r7, #24]
     766:	460b      	mov	r3, r1
     768:	461a      	mov	r2, r3
     76a:	f04f 0300 	mov.w	r3, #0
     76e:	ea4f 09c3 	mov.w	r9, r3, lsl #3
     772:	ea49 7952 	orr.w	r9, r9, r2, lsr #29
     776:	ea4f 08c2 	mov.w	r8, r2, lsl #3
     77a:	460b      	mov	r3, r1
     77c:	461a      	mov	r2, r3
     77e:	f04f 0300 	mov.w	r3, #0
     782:	00dd      	lsls	r5, r3, #3
     784:	ea45 7552 	orr.w	r5, r5, r2, lsr #29
     788:	00d4      	lsls	r4, r2, #3
     78a:	460b      	mov	r3, r1
     78c:	3307      	adds	r3, #7
     78e:	08db      	lsrs	r3, r3, #3
     790:	00db      	lsls	r3, r3, #3
     792:	ebad 0d03 	sub.w	sp, sp, r3
     796:	ab02      	add	r3, sp, #8
     798:	3300      	adds	r3, #0
     79a:	617b      	str	r3, [r7, #20]
	va_list vl;
	va_start(vl, s);
     79c:	f107 0344 	add.w	r3, r7, #68	; 0x44
     7a0:	613b      	str	r3, [r7, #16]

	vsnprintf(buf, sizeof(buf), s, vl);
     7a2:	6978      	ldr	r0, [r7, #20]
     7a4:	693b      	ldr	r3, [r7, #16]
     7a6:	68fa      	ldr	r2, [r7, #12]
     7a8:	f004 f89e 	bl	48e8 <vsniprintf>
	va_end(vl);
	write_string(buf, writef_buffer_size, buffer, x, y, flip);
     7ac:	6978      	ldr	r0, [r7, #20]
     7ae:	69f9      	ldr	r1, [r7, #28]
     7b0:	6c3b      	ldr	r3, [r7, #64]	; 0x40
     7b2:	9301      	str	r3, [sp, #4]
     7b4:	683b      	ldr	r3, [r7, #0]
     7b6:	9300      	str	r3, [sp, #0]
     7b8:	687b      	ldr	r3, [r7, #4]
     7ba:	68ba      	ldr	r2, [r7, #8]
     7bc:	f000 f806 	bl	7cc <write_string>
     7c0:	46b5      	mov	sp, r6
}
     7c2:	bf00      	nop
     7c4:	3724      	adds	r7, #36	; 0x24
     7c6:	46bd      	mov	sp, r7
     7c8:	e8bd 83f0 	ldmia.w	sp!, {r4, r5, r6, r7, r8, r9, pc}

000007cc <write_string>:

void write_string(char *s, unsigned long len, uint8_t *buffer, unsigned int x, unsigned int y, int flip) {
     7cc:	b500      	push	{lr}
     7ce:	b089      	sub	sp, #36	; 0x24
     7d0:	9005      	str	r0, [sp, #20]
     7d2:	9104      	str	r1, [sp, #16]
     7d4:	9203      	str	r2, [sp, #12]
     7d6:	9302      	str	r3, [sp, #8]
	if(y >= SCREEN_HEIGHT) return;
     7d8:	9b0a      	ldr	r3, [sp, #40]	; 0x28
     7da:	2b7f      	cmp	r3, #127	; 0x7f
     7dc:	d827      	bhi.n	82e <write_string+0x62>
	for(int i = 0; i < len; i++) {
     7de:	2300      	movs	r3, #0
     7e0:	9307      	str	r3, [sp, #28]
     7e2:	e01f      	b.n	824 <write_string+0x58>
		if(x >= SCREEN_WIDTH || s[i] == '\0') return;
     7e4:	9b02      	ldr	r3, [sp, #8]
     7e6:	2b7f      	cmp	r3, #127	; 0x7f
     7e8:	d823      	bhi.n	832 <write_string+0x66>
     7ea:	9b07      	ldr	r3, [sp, #28]
     7ec:	9a05      	ldr	r2, [sp, #20]
     7ee:	4413      	add	r3, r2
     7f0:	781b      	ldrb	r3, [r3, #0]
     7f2:	2b00      	cmp	r3, #0
     7f4:	d01d      	beq.n	832 <write_string+0x66>
		if(s[i] != ' ') enter_char(s[i], buffer, x, y, flip);
     7f6:	9b07      	ldr	r3, [sp, #28]
     7f8:	9a05      	ldr	r2, [sp, #20]
     7fa:	4413      	add	r3, r2
     7fc:	781b      	ldrb	r3, [r3, #0]
     7fe:	2b20      	cmp	r3, #32
     800:	d00a      	beq.n	818 <write_string+0x4c>
     802:	9b07      	ldr	r3, [sp, #28]
     804:	9a05      	ldr	r2, [sp, #20]
     806:	4413      	add	r3, r2
     808:	7818      	ldrb	r0, [r3, #0]
     80a:	9b0b      	ldr	r3, [sp, #44]	; 0x2c
     80c:	9300      	str	r3, [sp, #0]
     80e:	9b0a      	ldr	r3, [sp, #40]	; 0x28
     810:	9a02      	ldr	r2, [sp, #8]
     812:	9903      	ldr	r1, [sp, #12]
     814:	f000 f812 	bl	83c <enter_char>
		x += FONT_WIDTH;
     818:	9b02      	ldr	r3, [sp, #8]
     81a:	3308      	adds	r3, #8
     81c:	9302      	str	r3, [sp, #8]
	write_string(buf, writef_buffer_size, buffer, x, y, flip);
}

void write_string(char *s, unsigned long len, uint8_t *buffer, unsigned int x, unsigned int y, int flip) {
	if(y >= SCREEN_HEIGHT) return;
	for(int i = 0; i < len; i++) {
     81e:	9b07      	ldr	r3, [sp, #28]
     820:	3301      	adds	r3, #1
     822:	9307      	str	r3, [sp, #28]
     824:	9a07      	ldr	r2, [sp, #28]
     826:	9b04      	ldr	r3, [sp, #16]
     828:	429a      	cmp	r2, r3
     82a:	d3db      	bcc.n	7e4 <write_string+0x18>
     82c:	e002      	b.n	834 <write_string+0x68>
	va_end(vl);
	write_string(buf, writef_buffer_size, buffer, x, y, flip);
}

void write_string(char *s, unsigned long len, uint8_t *buffer, unsigned int x, unsigned int y, int flip) {
	if(y >= SCREEN_HEIGHT) return;
     82e:	bf00      	nop
     830:	e000      	b.n	834 <write_string+0x68>
	for(int i = 0; i < len; i++) {
		if(x >= SCREEN_WIDTH || s[i] == '\0') return;
     832:	bf00      	nop
		if(s[i] != ' ') enter_char(s[i], buffer, x, y, flip);
		x += FONT_WIDTH;
	}
}
     834:	b009      	add	sp, #36	; 0x24
     836:	f85d fb04 	ldr.w	pc, [sp], #4
     83a:	bf00      	nop

0000083c <enter_char>:

void enter_char(char c, uint8_t *buffer, unsigned int x, unsigned int y, int flip) {
     83c:	b500      	push	{lr}
     83e:	b08b      	sub	sp, #44	; 0x2c
     840:	9102      	str	r1, [sp, #8]
     842:	9201      	str	r2, [sp, #4]
     844:	9300      	str	r3, [sp, #0]
     846:	4603      	mov	r3, r0
     848:	f88d 300f 	strb.w	r3, [sp, #15]
	if(!validate_character(c)) return;
     84c:	f89d 300f 	ldrb.w	r3, [sp, #15]
     850:	4618      	mov	r0, r3
     852:	f7ff ff41 	bl	6d8 <validate_character>
     856:	4603      	mov	r3, r0
     858:	f083 0301 	eor.w	r3, r3, #1
     85c:	b2db      	uxtb	r3, r3
     85e:	2b00      	cmp	r3, #0
     860:	d17f      	bne.n	962 <enter_char+0x126>
	unsigned char offset;
	unsigned char *c_map = get_char(c, &offset);
     862:	f10d 0212 	add.w	r2, sp, #18
     866:	f89d 300f 	ldrb.w	r3, [sp, #15]
     86a:	4611      	mov	r1, r2
     86c:	4618      	mov	r0, r3
     86e:	f000 f87d 	bl	96c <get_char>
     872:	9007      	str	r0, [sp, #28]
	int x_block = x/8;
     874:	9b01      	ldr	r3, [sp, #4]
     876:	08db      	lsrs	r3, r3, #3
     878:	9306      	str	r3, [sp, #24]
	int first_block = 2 + x_block + y*LINE_WIDTH;
     87a:	9a00      	ldr	r2, [sp, #0]
     87c:	4613      	mov	r3, r2
     87e:	00db      	lsls	r3, r3, #3
     880:	4413      	add	r3, r2
     882:	005b      	lsls	r3, r3, #1
     884:	461a      	mov	r2, r3
     886:	9b06      	ldr	r3, [sp, #24]
     888:	4413      	add	r3, r2
     88a:	3302      	adds	r3, #2
     88c:	9305      	str	r3, [sp, #20]

	for(int i = 0; i < MIN(FONT_HEIGHT, 128 - y); i++) {
     88e:	2300      	movs	r3, #0
     890:	9309      	str	r3, [sp, #36]	; 0x24
     892:	e05b      	b.n	94c <enter_char+0x110>
		if(flip) {
     894:	9b0c      	ldr	r3, [sp, #48]	; 0x30
     896:	2b00      	cmp	r3, #0
     898:	d045      	beq.n	926 <enter_char+0xea>
			buffer[first_block + i*LINE_WIDTH] = 0;
     89a:	9a09      	ldr	r2, [sp, #36]	; 0x24
     89c:	4613      	mov	r3, r2
     89e:	00db      	lsls	r3, r3, #3
     8a0:	4413      	add	r3, r2
     8a2:	005b      	lsls	r3, r3, #1
     8a4:	461a      	mov	r2, r3
     8a6:	9b05      	ldr	r3, [sp, #20]
     8a8:	4413      	add	r3, r2
     8aa:	461a      	mov	r2, r3
     8ac:	9b02      	ldr	r3, [sp, #8]
     8ae:	4413      	add	r3, r2
     8b0:	2200      	movs	r2, #0
     8b2:	701a      	strb	r2, [r3, #0]
			char c = c_map[i];
     8b4:	9b09      	ldr	r3, [sp, #36]	; 0x24
     8b6:	9a07      	ldr	r2, [sp, #28]
     8b8:	4413      	add	r3, r2
     8ba:	781b      	ldrb	r3, [r3, #0]
     8bc:	f88d 3013 	strb.w	r3, [sp, #19]
			for(int i2 = 0; i2 < 8; i2++) buffer[first_block + i*LINE_WIDTH] |= (((c >> i2) & 0x1) << (7 - i2));
     8c0:	2300      	movs	r3, #0
     8c2:	9308      	str	r3, [sp, #32]
     8c4:	e02b      	b.n	91e <enter_char+0xe2>
     8c6:	9a09      	ldr	r2, [sp, #36]	; 0x24
     8c8:	4613      	mov	r3, r2
     8ca:	00db      	lsls	r3, r3, #3
     8cc:	4413      	add	r3, r2
     8ce:	005b      	lsls	r3, r3, #1
     8d0:	461a      	mov	r2, r3
     8d2:	9b05      	ldr	r3, [sp, #20]
     8d4:	4413      	add	r3, r2
     8d6:	461a      	mov	r2, r3
     8d8:	9b02      	ldr	r3, [sp, #8]
     8da:	1899      	adds	r1, r3, r2
     8dc:	9a09      	ldr	r2, [sp, #36]	; 0x24
     8de:	4613      	mov	r3, r2
     8e0:	00db      	lsls	r3, r3, #3
     8e2:	4413      	add	r3, r2
     8e4:	005b      	lsls	r3, r3, #1
     8e6:	461a      	mov	r2, r3
     8e8:	9b05      	ldr	r3, [sp, #20]
     8ea:	4413      	add	r3, r2
     8ec:	461a      	mov	r2, r3
     8ee:	9b02      	ldr	r3, [sp, #8]
     8f0:	4413      	add	r3, r2
     8f2:	781b      	ldrb	r3, [r3, #0]
     8f4:	b25a      	sxtb	r2, r3
     8f6:	f89d 0013 	ldrb.w	r0, [sp, #19]
     8fa:	9b08      	ldr	r3, [sp, #32]
     8fc:	fa40 f303 	asr.w	r3, r0, r3
     900:	f003 0001 	and.w	r0, r3, #1
     904:	9b08      	ldr	r3, [sp, #32]
     906:	f1c3 0307 	rsb	r3, r3, #7
     90a:	fa00 f303 	lsl.w	r3, r0, r3
     90e:	b25b      	sxtb	r3, r3
     910:	4313      	orrs	r3, r2
     912:	b25b      	sxtb	r3, r3
     914:	b2db      	uxtb	r3, r3
     916:	700b      	strb	r3, [r1, #0]
     918:	9b08      	ldr	r3, [sp, #32]
     91a:	3301      	adds	r3, #1
     91c:	9308      	str	r3, [sp, #32]
     91e:	9b08      	ldr	r3, [sp, #32]
     920:	2b07      	cmp	r3, #7
     922:	ddd0      	ble.n	8c6 <enter_char+0x8a>
     924:	e00f      	b.n	946 <enter_char+0x10a>
		} else {
			buffer[first_block + i*LINE_WIDTH] = c_map[i];
     926:	9a09      	ldr	r2, [sp, #36]	; 0x24
     928:	4613      	mov	r3, r2
     92a:	00db      	lsls	r3, r3, #3
     92c:	4413      	add	r3, r2
     92e:	005b      	lsls	r3, r3, #1
     930:	461a      	mov	r2, r3
     932:	9b05      	ldr	r3, [sp, #20]
     934:	4413      	add	r3, r2
     936:	461a      	mov	r2, r3
     938:	9b02      	ldr	r3, [sp, #8]
     93a:	4413      	add	r3, r2
     93c:	9a09      	ldr	r2, [sp, #36]	; 0x24
     93e:	9907      	ldr	r1, [sp, #28]
     940:	440a      	add	r2, r1
     942:	7812      	ldrb	r2, [r2, #0]
     944:	701a      	strb	r2, [r3, #0]
	unsigned char offset;
	unsigned char *c_map = get_char(c, &offset);
	int x_block = x/8;
	int first_block = 2 + x_block + y*LINE_WIDTH;

	for(int i = 0; i < MIN(FONT_HEIGHT, 128 - y); i++) {
     946:	9b09      	ldr	r3, [sp, #36]	; 0x24
     948:	3301      	adds	r3, #1
     94a:	9309      	str	r3, [sp, #36]	; 0x24
     94c:	9b00      	ldr	r3, [sp, #0]
     94e:	f1c3 0380 	rsb	r3, r3, #128	; 0x80
     952:	2b08      	cmp	r3, #8
     954:	bf28      	it	cs
     956:	2308      	movcs	r3, #8
     958:	461a      	mov	r2, r3
     95a:	9b09      	ldr	r3, [sp, #36]	; 0x24
     95c:	429a      	cmp	r2, r3
     95e:	d899      	bhi.n	894 <enter_char+0x58>
     960:	e000      	b.n	964 <enter_char+0x128>
		x += FONT_WIDTH;
	}
}

void enter_char(char c, uint8_t *buffer, unsigned int x, unsigned int y, int flip) {
	if(!validate_character(c)) return;
     962:	bf00      	nop
			for(int i2 = 0; i2 < 8; i2++) buffer[first_block + i*LINE_WIDTH] |= (((c >> i2) & 0x1) << (7 - i2));
		} else {
			buffer[first_block + i*LINE_WIDTH] = c_map[i];
		}
	}
}
     964:	b00b      	add	sp, #44	; 0x2c
     966:	f85d fb04 	ldr.w	pc, [sp], #4
     96a:	bf00      	nop

0000096c <get_char>:
	{0,48,48,0,0,48,48,0},
	{0,0,0,0,0,24,24,0},
	{0,98,100,8,16,38,70,0}
};

unsigned char *get_char(char c, unsigned char *offset) {
     96c:	b500      	push	{lr}
     96e:	b087      	sub	sp, #28
     970:	4603      	mov	r3, r0
     972:	9100      	str	r1, [sp, #0]
     974:	f88d 3007 	strb.w	r3, [sp, #7]
	unsigned int pos;
	if(c - '0' >= 0 && c - '9' <= 0) {
     978:	f89d 3007 	ldrb.w	r3, [sp, #7]
     97c:	3b30      	subs	r3, #48	; 0x30
     97e:	2b00      	cmp	r3, #0
     980:	db1a      	blt.n	9b8 <get_char+0x4c>
     982:	f89d 3007 	ldrb.w	r3, [sp, #7]
     986:	3b39      	subs	r3, #57	; 0x39
     988:	2b00      	cmp	r3, #0
     98a:	dc15      	bgt.n	9b8 <get_char+0x4c>
		pos = ALPHABET_LENGTH + (c - '0');
     98c:	f89d 3007 	ldrb.w	r3, [sp, #7]
     990:	3b16      	subs	r3, #22
     992:	9305      	str	r3, [sp, #20]
		*offset = ((c - '0') % 2)*4;
     994:	f89d 3007 	ldrb.w	r3, [sp, #7]
     998:	f1a3 0230 	sub.w	r2, r3, #48	; 0x30
     99c:	4b31      	ldr	r3, [pc, #196]	; (a64 <get_char+0xf8>)
     99e:	4013      	ands	r3, r2
     9a0:	2b00      	cmp	r3, #0
     9a2:	da03      	bge.n	9ac <get_char+0x40>
     9a4:	3b01      	subs	r3, #1
     9a6:	f063 0301 	orn	r3, r3, #1
     9aa:	3301      	adds	r3, #1
     9ac:	b2db      	uxtb	r3, r3
     9ae:	009b      	lsls	r3, r3, #2
     9b0:	b2da      	uxtb	r2, r3
     9b2:	9b00      	ldr	r3, [sp, #0]
     9b4:	701a      	strb	r2, [r3, #0]
     9b6:	e04c      	b.n	a52 <get_char+0xe6>
	} else if (c - 'a' >= 0 && c - 'z' <= 0) {
     9b8:	f89d 3007 	ldrb.w	r3, [sp, #7]
     9bc:	3b61      	subs	r3, #97	; 0x61
     9be:	2b00      	cmp	r3, #0
     9c0:	db1a      	blt.n	9f8 <get_char+0x8c>
     9c2:	f89d 3007 	ldrb.w	r3, [sp, #7]
     9c6:	3b7a      	subs	r3, #122	; 0x7a
     9c8:	2b00      	cmp	r3, #0
     9ca:	dc15      	bgt.n	9f8 <get_char+0x8c>
		pos = (c - 'a');
     9cc:	f89d 3007 	ldrb.w	r3, [sp, #7]
     9d0:	3b61      	subs	r3, #97	; 0x61
     9d2:	9305      	str	r3, [sp, #20]
		*offset = ((c - 'a') % 2)*4;
     9d4:	f89d 3007 	ldrb.w	r3, [sp, #7]
     9d8:	f1a3 0261 	sub.w	r2, r3, #97	; 0x61
     9dc:	4b21      	ldr	r3, [pc, #132]	; (a64 <get_char+0xf8>)
     9de:	4013      	ands	r3, r2
     9e0:	2b00      	cmp	r3, #0
     9e2:	da03      	bge.n	9ec <get_char+0x80>
     9e4:	3b01      	subs	r3, #1
     9e6:	f063 0301 	orn	r3, r3, #1
     9ea:	3301      	adds	r3, #1
     9ec:	b2db      	uxtb	r3, r3
     9ee:	009b      	lsls	r3, r3, #2
     9f0:	b2da      	uxtb	r2, r3
     9f2:	9b00      	ldr	r3, [sp, #0]
     9f4:	701a      	strb	r2, [r3, #0]
     9f6:	e02c      	b.n	a52 <get_char+0xe6>
	} else if(c - 'A' >= 0 && c - 'z' <= 0) {
     9f8:	f89d 3007 	ldrb.w	r3, [sp, #7]
     9fc:	3b41      	subs	r3, #65	; 0x41
     9fe:	2b00      	cmp	r3, #0
     a00:	db0e      	blt.n	a20 <get_char+0xb4>
     a02:	f89d 3007 	ldrb.w	r3, [sp, #7]
     a06:	3b7a      	subs	r3, #122	; 0x7a
     a08:	2b00      	cmp	r3, #0
     a0a:	dc09      	bgt.n	a20 <get_char+0xb4>
		return get_char(c - 'A' + 'a', offset);
     a0c:	f89d 3007 	ldrb.w	r3, [sp, #7]
     a10:	3320      	adds	r3, #32
     a12:	b2db      	uxtb	r3, r3
     a14:	9900      	ldr	r1, [sp, #0]
     a16:	4618      	mov	r0, r3
     a18:	f7ff ffa8 	bl	96c <get_char>
     a1c:	4603      	mov	r3, r0
     a1e:	e01c      	b.n	a5a <get_char+0xee>
	} else {
		int counter = 0;
     a20:	2300      	movs	r3, #0
     a22:	9304      	str	r3, [sp, #16]
		for(const char *ch = EXTRA_CHARS; *ch != '\0'; ch++) {
     a24:	4b10      	ldr	r3, [pc, #64]	; (a68 <get_char+0xfc>)
     a26:	9303      	str	r3, [sp, #12]
     a28:	e00f      	b.n	a4a <get_char+0xde>
			if(*ch == c) {
     a2a:	9b03      	ldr	r3, [sp, #12]
     a2c:	781b      	ldrb	r3, [r3, #0]
     a2e:	f89d 2007 	ldrb.w	r2, [sp, #7]
     a32:	429a      	cmp	r2, r3
     a34:	d103      	bne.n	a3e <get_char+0xd2>
				pos = ALPHABET_LENGTH + 10 + counter;
     a36:	9b04      	ldr	r3, [sp, #16]
     a38:	3324      	adds	r3, #36	; 0x24
     a3a:	9305      	str	r3, [sp, #20]
				break;
     a3c:	e009      	b.n	a52 <get_char+0xe6>
			}
			counter++;
     a3e:	9b04      	ldr	r3, [sp, #16]
     a40:	3301      	adds	r3, #1
     a42:	9304      	str	r3, [sp, #16]
		*offset = ((c - 'a') % 2)*4;
	} else if(c - 'A' >= 0 && c - 'z' <= 0) {
		return get_char(c - 'A' + 'a', offset);
	} else {
		int counter = 0;
		for(const char *ch = EXTRA_CHARS; *ch != '\0'; ch++) {
     a44:	9b03      	ldr	r3, [sp, #12]
     a46:	3301      	adds	r3, #1
     a48:	9303      	str	r3, [sp, #12]
     a4a:	9b03      	ldr	r3, [sp, #12]
     a4c:	781b      	ldrb	r3, [r3, #0]
     a4e:	2b00      	cmp	r3, #0
     a50:	d1eb      	bne.n	a2a <get_char+0xbe>
				break;
			}
			counter++;
		}
	}
	return chars_big[pos];
     a52:	9b05      	ldr	r3, [sp, #20]
     a54:	00db      	lsls	r3, r3, #3
     a56:	4a05      	ldr	r2, [pc, #20]	; (a6c <get_char+0x100>)
     a58:	4413      	add	r3, r2
}
     a5a:	4618      	mov	r0, r3
     a5c:	b007      	add	sp, #28
     a5e:	f85d fb04 	ldr.w	pc, [sp], #4
     a62:	bf00      	nop
     a64:	80000001 	.word	0x80000001
     a68:	00004fdc 	.word	0x00004fdc
     a6c:	20000004 	.word	0x20000004

00000a70 <NVIC_EnableIRQ>:
  \brief   Enable External Interrupt
  \details Enables a device-specific interrupt in the NVIC interrupt controller.
  \param [in]      IRQn  External interrupt number. Value cannot be negative.
 */
__STATIC_INLINE void NVIC_EnableIRQ(IRQn_Type IRQn)
{
     a70:	b082      	sub	sp, #8
     a72:	4603      	mov	r3, r0
     a74:	f88d 3007 	strb.w	r3, [sp, #7]
  NVIC->ISER[(((uint32_t)(int32_t)IRQn) >> 5UL)] = (uint32_t)(1UL << (((uint32_t)(int32_t)IRQn) & 0x1FUL));
     a78:	4907      	ldr	r1, [pc, #28]	; (a98 <NVIC_EnableIRQ+0x28>)
     a7a:	f99d 3007 	ldrsb.w	r3, [sp, #7]
     a7e:	095b      	lsrs	r3, r3, #5
     a80:	f89d 2007 	ldrb.w	r2, [sp, #7]
     a84:	f002 021f 	and.w	r2, r2, #31
     a88:	2001      	movs	r0, #1
     a8a:	fa00 f202 	lsl.w	r2, r0, r2
     a8e:	f841 2023 	str.w	r2, [r1, r3, lsl #2]
}
     a92:	bf00      	nop
     a94:	b002      	add	sp, #8
     a96:	4770      	bx	lr
     a98:	e000e100 	.word	0xe000e100

00000a9c <NVIC_ClearPendingIRQ>:
  \brief   Clear Pending Interrupt
  \details Clears the pending bit of an external interrupt.
  \param [in]      IRQn  External interrupt number. Value cannot be negative.
 */
__STATIC_INLINE void NVIC_ClearPendingIRQ(IRQn_Type IRQn)
{
     a9c:	b082      	sub	sp, #8
     a9e:	4603      	mov	r3, r0
     aa0:	f88d 3007 	strb.w	r3, [sp, #7]
  NVIC->ICPR[(((uint32_t)(int32_t)IRQn) >> 5UL)] = (uint32_t)(1UL << (((uint32_t)(int32_t)IRQn) & 0x1FUL));
     aa4:	4908      	ldr	r1, [pc, #32]	; (ac8 <NVIC_ClearPendingIRQ+0x2c>)
     aa6:	f99d 3007 	ldrsb.w	r3, [sp, #7]
     aaa:	095b      	lsrs	r3, r3, #5
     aac:	f89d 2007 	ldrb.w	r2, [sp, #7]
     ab0:	f002 021f 	and.w	r2, r2, #31
     ab4:	2001      	movs	r0, #1
     ab6:	fa00 f202 	lsl.w	r2, r0, r2
     aba:	3360      	adds	r3, #96	; 0x60
     abc:	f841 2023 	str.w	r2, [r1, r3, lsl #2]
}
     ac0:	bf00      	nop
     ac2:	b002      	add	sp, #8
     ac4:	4770      	bx	lr
     ac6:	bf00      	nop
     ac8:	e000e100 	.word	0xe000e100

00000acc <EMU_EnterEM1>:
 *   Enter energy mode 1 (EM1).
 ******************************************************************************/
__STATIC_INLINE void EMU_EnterEM1(void)
{
  /* Enter sleep mode */
  SCB->SCR &= ~SCB_SCR_SLEEPDEEP_Msk;
     acc:	4a04      	ldr	r2, [pc, #16]	; (ae0 <EMU_EnterEM1+0x14>)
     ace:	4b04      	ldr	r3, [pc, #16]	; (ae0 <EMU_EnterEM1+0x14>)
     ad0:	691b      	ldr	r3, [r3, #16]
     ad2:	f023 0304 	bic.w	r3, r3, #4
     ad6:	6113      	str	r3, [r2, #16]
  \brief   Wait For Interrupt
  \details Wait For Interrupt is a hint instruction that suspends execution until one of a number of events occurs.
 */
__attribute__((always_inline)) __STATIC_INLINE void __WFI(void)
{
  __ASM volatile ("wfi");
     ad8:	bf30      	wfi
  __WFI();
}
     ada:	bf00      	nop
     adc:	4770      	bx	lr
     ade:	bf00      	nop
     ae0:	e000ed00 	.word	0xe000ed00

00000ae4 <USART_IntClear>:
 * @param[in] flags
 *   Pending USART/UART interrupt source(s) to clear. Use one or more valid
 *   interrupt flags for the USART module (USART_IF_nnn) OR'ed together.
 ******************************************************************************/
__STATIC_INLINE void USART_IntClear(USART_TypeDef *usart, uint32_t flags)
{
     ae4:	b082      	sub	sp, #8
     ae6:	9001      	str	r0, [sp, #4]
     ae8:	9100      	str	r1, [sp, #0]
  usart->IFC = flags;
     aea:	9b01      	ldr	r3, [sp, #4]
     aec:	9a00      	ldr	r2, [sp, #0]
     aee:	649a      	str	r2, [r3, #72]	; 0x48
}
     af0:	bf00      	nop
     af2:	b002      	add	sp, #8
     af4:	4770      	bx	lr
     af6:	bf00      	nop

00000af8 <USART_IntDisable>:
 * @param[in] flags
 *   USART/UART interrupt source(s) to disable. Use one or more valid
 *   interrupt flags for the USART module (USART_IF_nnn) OR'ed together.
 ******************************************************************************/
__STATIC_INLINE void USART_IntDisable(USART_TypeDef *usart, uint32_t flags)
{
     af8:	b082      	sub	sp, #8
     afa:	9001      	str	r0, [sp, #4]
     afc:	9100      	str	r1, [sp, #0]
  usart->IEN &= ~flags;
     afe:	9b01      	ldr	r3, [sp, #4]
     b00:	6cda      	ldr	r2, [r3, #76]	; 0x4c
     b02:	9b00      	ldr	r3, [sp, #0]
     b04:	43db      	mvns	r3, r3
     b06:	401a      	ands	r2, r3
     b08:	9b01      	ldr	r3, [sp, #4]
     b0a:	64da      	str	r2, [r3, #76]	; 0x4c
}
     b0c:	bf00      	nop
     b0e:	b002      	add	sp, #8
     b10:	4770      	bx	lr
     b12:	bf00      	nop

00000b14 <USART_IntEnable>:
 * @param[in] flags
 *   USART/UART interrupt source(s) to enable. Use one or more valid
 *   interrupt flags for the USART module (USART_IF_nnn) OR'ed together.
 ******************************************************************************/
__STATIC_INLINE void USART_IntEnable(USART_TypeDef *usart, uint32_t flags)
{
     b14:	b082      	sub	sp, #8
     b16:	9001      	str	r0, [sp, #4]
     b18:	9100      	str	r1, [sp, #0]
  usart->IEN |= flags;
     b1a:	9b01      	ldr	r3, [sp, #4]
     b1c:	6cda      	ldr	r2, [r3, #76]	; 0x4c
     b1e:	9b00      	ldr	r3, [sp, #0]
     b20:	431a      	orrs	r2, r3
     b22:	9b01      	ldr	r3, [sp, #4]
     b24:	64da      	str	r2, [r3, #76]	; 0x4c
}
     b26:	bf00      	nop
     b28:	b002      	add	sp, #8
     b2a:	4770      	bx	lr

00000b2c <USART_IntGet>:
 * @return
 *   USART/UART interrupt source(s) pending. Returns one or more valid
 *   interrupt flags for the USART module (USART_IF_nnn) OR'ed together.
 ******************************************************************************/
__STATIC_INLINE uint32_t USART_IntGet(USART_TypeDef *usart)
{
     b2c:	b082      	sub	sp, #8
     b2e:	9001      	str	r0, [sp, #4]
  return usart->IF;
     b30:	9b01      	ldr	r3, [sp, #4]
     b32:	6c1b      	ldr	r3, [r3, #64]	; 0x40
}
     b34:	4618      	mov	r0, r3
     b36:	b002      	add	sp, #8
     b38:	4770      	bx	lr
     b3a:	bf00      	nop

00000b3c <setup_uart>:

/******************************************************************************
 * @brief  Main function
 *
 *****************************************************************************/
void setup_uart(void) {
     b3c:	b500      	push	{lr}
     b3e:	b0c3      	sub	sp, #268	; 0x10c
  /* Initialize clocks and oscillators */
  cmuSetup( );
     b40:	f000 f92a 	bl	d98 <cmuSetup>

  /* Initialize UART peripheral */
  uartSetup( );
     b44:	f000 f836 	bl	bb4 <uartSetup>

  /* Initialize Development Kit in EBI mode */
  BSP_Init(BSP_INIT_DEFAULT);
     b48:	2002      	movs	r0, #2
     b4a:	f000 fa25 	bl	f98 <BSP_Init>

  /* Enable RS-232 transceiver on Development Kit */
  BSP_PeripheralAccess(/*BSP_RS232_UART*/1, true);
     b4e:	2101      	movs	r1, #1
     b50:	2001      	movs	r0, #1
     b52:	f000 fae3 	bl	111c <BSP_PeripheralAccess>

  /* When DVK is configured, and no more DVK access is needed, the interface can safely be disabled to save current */
  BSP_Disable();
     b56:	f000 fa09 	bl	f6c <BSP_Disable>
   *  When the predefined termiation character is received, the all pending
   *  data in rxBuf is copied to txBuf and echoed back on the UART */
  while (1)
  {
    //Wait in EM1 while UART transmit
    EMU_EnterEM1();
     b5a:	f7ff ffb7 	bl	acc <EMU_EnterEM1>

    // Check if RX buffer has overflowed
    if (rxBuf.overflow) {
     b5e:	4b13      	ldr	r3, [pc, #76]	; (bac <setup_uart+0x70>)
     b60:	f893 310c 	ldrb.w	r3, [r3, #268]	; 0x10c
     b64:	b2db      	uxtb	r3, r3
     b66:	2b00      	cmp	r3, #0
     b68:	d008      	beq.n	b7c <setup_uart+0x40>
      rxBuf.overflow = false;
     b6a:	4b10      	ldr	r3, [pc, #64]	; (bac <setup_uart+0x70>)
     b6c:	2200      	movs	r2, #0
     b6e:	f883 210c 	strb.w	r2, [r3, #268]	; 0x10c
      uartPutData((uint8_t*) overflowString, ofsLen);
     b72:	2313      	movs	r3, #19
     b74:	4619      	mov	r1, r3
     b76:	480e      	ldr	r0, [pc, #56]	; (bb0 <setup_uart+0x74>)
     b78:	f000 f880 	bl	c7c <uartPutData>
    }

    // Check if termination character is received
    if (rxBuf.data[(rxBuf.wrI - 1) % BUFFERSIZE] == TERMINATION_CHAR) {
     b7c:	4b0b      	ldr	r3, [pc, #44]	; (bac <setup_uart+0x70>)
     b7e:	f8d3 3104 	ldr.w	r3, [r3, #260]	; 0x104
     b82:	3b01      	subs	r3, #1
     b84:	b2db      	uxtb	r3, r3
     b86:	4a09      	ldr	r2, [pc, #36]	; (bac <setup_uart+0x70>)
     b88:	5cd3      	ldrb	r3, [r2, r3]
     b8a:	b2db      	uxtb	r3, r3
     b8c:	2b2e      	cmp	r3, #46	; 0x2e
     b8e:	d1e4      	bne.n	b5a <setup_uart+0x1e>
      // Copy received data to UART transmit queue
      uint8_t tmpBuf[BUFFERSIZE];
      int     len = uartGetData(tmpBuf, 0);
     b90:	ab01      	add	r3, sp, #4
     b92:	2100      	movs	r1, #0
     b94:	4618      	mov	r0, r3
     b96:	f000 f8bd 	bl	d14 <uartGetData>
     b9a:	4603      	mov	r3, r0
     b9c:	9341      	str	r3, [sp, #260]	; 0x104
      uartPutData(tmpBuf, len);
     b9e:	9a41      	ldr	r2, [sp, #260]	; 0x104
     ba0:	ab01      	add	r3, sp, #4
     ba2:	4611      	mov	r1, r2
     ba4:	4618      	mov	r0, r3
     ba6:	f000 f869 	bl	c7c <uartPutData>
    }
  }
     baa:	e7d6      	b.n	b5a <setup_uart+0x1e>
     bac:	200010a8 	.word	0x200010a8
     bb0:	00004fe4 	.word	0x00004fe4

00000bb4 <uartSetup>:

/******************************************************************************
* @brief  uartSetup function
*
******************************************************************************/
void uartSetup(void) {
     bb4:	b508      	push	{r3, lr}
  /* Enable clock for GPIO module (required for pin configuration) */
  CMU_ClockEnable(cmuClock_GPIO, true);
     bb6:	2101      	movs	r1, #1
     bb8:	482d      	ldr	r0, [pc, #180]	; (c70 <Heap_Size+0x70>)
     bba:	f001 fd75 	bl	26a8 <CMU_ClockEnable>
  /* Configure GPIO pins */
  GPIO_PinModeSet(gpioPortE, 2, gpioModePushPull, 1);	//TX
     bbe:	2301      	movs	r3, #1
     bc0:	2204      	movs	r2, #4
     bc2:	2102      	movs	r1, #2
     bc4:	2004      	movs	r0, #4
     bc6:	f002 fcbd 	bl	3544 <GPIO_PinModeSet>
  GPIO_PinModeSet(gpioPortE, 3, gpioModeInput, 0);	//RX
     bca:	2300      	movs	r3, #0
     bcc:	2201      	movs	r2, #1
     bce:	2103      	movs	r1, #3
     bd0:	2004      	movs	r0, #4
     bd2:	f002 fcb7 	bl	3544 <GPIO_PinModeSet>


  /* Prepare struct for initializing UART in asynchronous mode*/
  uartInit.enable       = usartDisable;   	/* Don't enable UART upon intialization */
     bd6:	4b27      	ldr	r3, [pc, #156]	; (c74 <Heap_Size+0x74>)
     bd8:	2200      	movs	r2, #0
     bda:	701a      	strb	r2, [r3, #0]
  uartInit.refFreq      = 0;              	/* Provide information on reference frequency. When set to 0, the reference frequency is */
     bdc:	4b25      	ldr	r3, [pc, #148]	; (c74 <Heap_Size+0x74>)
     bde:	2200      	movs	r2, #0
     be0:	605a      	str	r2, [r3, #4]
  uartInit.baudrate     = 9600;			/* Baud rate */
     be2:	4b24      	ldr	r3, [pc, #144]	; (c74 <Heap_Size+0x74>)
     be4:	f44f 5216 	mov.w	r2, #9600	; 0x2580
     be8:	609a      	str	r2, [r3, #8]
  uartInit.oversampling = usartOVS16;     	/* Oversampling. Range is 4x, 6x, 8x or 16x */
     bea:	4b22      	ldr	r3, [pc, #136]	; (c74 <Heap_Size+0x74>)
     bec:	2200      	movs	r2, #0
     bee:	731a      	strb	r2, [r3, #12]
  uartInit.databits     = usartDatabits8; 	/* Number of data bits. Range is 4 to 10 */
     bf0:	4b20      	ldr	r3, [pc, #128]	; (c74 <Heap_Size+0x74>)
     bf2:	2205      	movs	r2, #5
     bf4:	735a      	strb	r2, [r3, #13]
  uartInit.parity       = usartNoParity;  	/* Parity mode */
     bf6:	4b1f      	ldr	r3, [pc, #124]	; (c74 <Heap_Size+0x74>)
     bf8:	2200      	movs	r2, #0
     bfa:	81da      	strh	r2, [r3, #14]
  uartInit.stopbits     = usartStopbits2; 	/* Number of stop bits. Range is 0 to 2 */
     bfc:	4b1d      	ldr	r3, [pc, #116]	; (c74 <Heap_Size+0x74>)
     bfe:	f44f 5240 	mov.w	r2, #12288	; 0x3000
     c02:	821a      	strh	r2, [r3, #16]
  uartInit.mvdis        = false;          	/* Disable majority voting */
     c04:	4b1b      	ldr	r3, [pc, #108]	; (c74 <Heap_Size+0x74>)
     c06:	2200      	movs	r2, #0
     c08:	749a      	strb	r2, [r3, #18]
  uartInit.prsRxEnable  = false;          	/* Enable USART Rx via Peripheral Reflex System */
     c0a:	4b1a      	ldr	r3, [pc, #104]	; (c74 <Heap_Size+0x74>)
     c0c:	2200      	movs	r2, #0
     c0e:	74da      	strb	r2, [r3, #19]
  uartInit.prsRxCh      = usartPrsRxCh0;  	/* Select PRS channel if enabled */
     c10:	4b18      	ldr	r3, [pc, #96]	; (c74 <Heap_Size+0x74>)
     c12:	2200      	movs	r2, #0
     c14:	751a      	strb	r2, [r3, #20]

  /* Initialize USART with uartInit struct */
  USART_InitAsync(uart, &uartInit);
     c16:	4b18      	ldr	r3, [pc, #96]	; (c78 <Heap_Size+0x78>)
     c18:	681b      	ldr	r3, [r3, #0]
     c1a:	4916      	ldr	r1, [pc, #88]	; (c74 <Heap_Size+0x74>)
     c1c:	4618      	mov	r0, r3
     c1e:	f002 fe1b 	bl	3858 <USART_InitAsync>

  /* Prepare UART Rx and Tx interrupts */
  USART_IntClear(uart, _UART_IF_MASK);
     c22:	4b15      	ldr	r3, [pc, #84]	; (c78 <Heap_Size+0x78>)
     c24:	681b      	ldr	r3, [r3, #0]
     c26:	f641 71ff 	movw	r1, #8191	; 0x1fff
     c2a:	4618      	mov	r0, r3
     c2c:	f7ff ff5a 	bl	ae4 <USART_IntClear>
  USART_IntEnable(uart, UART_IF_RXDATAV);
     c30:	4b11      	ldr	r3, [pc, #68]	; (c78 <Heap_Size+0x78>)
     c32:	681b      	ldr	r3, [r3, #0]
     c34:	2104      	movs	r1, #4
     c36:	4618      	mov	r0, r3
     c38:	f7ff ff6c 	bl	b14 <USART_IntEnable>
  NVIC_ClearPendingIRQ(UART1_RX_IRQn);
     c3c:	2016      	movs	r0, #22
     c3e:	f7ff ff2d 	bl	a9c <NVIC_ClearPendingIRQ>
  NVIC_ClearPendingIRQ(UART1_TX_IRQn);
     c42:	2017      	movs	r0, #23
     c44:	f7ff ff2a 	bl	a9c <NVIC_ClearPendingIRQ>
  NVIC_EnableIRQ(UART1_RX_IRQn);
     c48:	2016      	movs	r0, #22
     c4a:	f7ff ff11 	bl	a70 <NVIC_EnableIRQ>
  NVIC_EnableIRQ(UART1_TX_IRQn);
     c4e:	2017      	movs	r0, #23
     c50:	f7ff ff0e 	bl	a70 <NVIC_EnableIRQ>

  /* Enable I/O pins at UART1 location #2 */
  uart->ROUTE = UART_ROUTE_RXPEN | UART_ROUTE_TXPEN | UART_ROUTE_LOCATION_LOC3;
     c54:	4b08      	ldr	r3, [pc, #32]	; (c78 <Heap_Size+0x78>)
     c56:	681b      	ldr	r3, [r3, #0]
     c58:	f240 3203 	movw	r2, #771	; 0x303
     c5c:	655a      	str	r2, [r3, #84]	; 0x54

  /* Enable UART */
  USART_Enable(uart, usartEnable);
     c5e:	4b06      	ldr	r3, [pc, #24]	; (c78 <Heap_Size+0x78>)
     c60:	681b      	ldr	r3, [r3, #0]
     c62:	2105      	movs	r1, #5
     c64:	4618      	mov	r0, r3
     c66:	f002 fdc1 	bl	37ec <USART_Enable>
}
     c6a:	bf00      	nop
     c6c:	bd08      	pop	{r3, pc}
     c6e:	bf00      	nop
     c70:	0004d200 	.word	0x0004d200
     c74:	20000140 	.word	0x20000140
     c78:	2000013c 	.word	0x2000013c

00000c7c <uartPutData>:

/******************************************************************************
 * @brief  uartPutData function
 *
 *****************************************************************************/
void uartPutData(uint8_t * dataPtr, uint32_t dataLen) {
     c7c:	b500      	push	{lr}
     c7e:	b085      	sub	sp, #20
     c80:	9001      	str	r0, [sp, #4]
     c82:	9100      	str	r1, [sp, #0]
  uint32_t i = 0;
     c84:	2300      	movs	r3, #0
     c86:	9303      	str	r3, [sp, #12]

  /* Check if buffer is large enough for data */
  if (dataLen > BUFFERSIZE) {
     c88:	9b00      	ldr	r3, [sp, #0]
     c8a:	f5b3 7f80 	cmp.w	r3, #256	; 0x100
     c8e:	d838      	bhi.n	d02 <uartPutData+0x86>
    /* Buffer can never fit the requested amount of data */
    return;
  }

  /* Check if buffer has room for new data */
  if ((txBuf.pendingBytes + dataLen) > BUFFERSIZE) {
     c90:	4b1e      	ldr	r3, [pc, #120]	; (d0c <uartPutData+0x90>)
     c92:	f8d3 2108 	ldr.w	r2, [r3, #264]	; 0x108
     c96:	9b00      	ldr	r3, [sp, #0]
     c98:	4413      	add	r3, r2
     c9a:	f5b3 7f80 	cmp.w	r3, #256	; 0x100
     c9e:	d91d      	bls.n	cdc <uartPutData+0x60>
    /* Wait until room */
    while ((txBuf.pendingBytes + dataLen) > BUFFERSIZE) ;
     ca0:	bf00      	nop
     ca2:	4b1a      	ldr	r3, [pc, #104]	; (d0c <uartPutData+0x90>)
     ca4:	f8d3 2108 	ldr.w	r2, [r3, #264]	; 0x108
     ca8:	9b00      	ldr	r3, [sp, #0]
     caa:	4413      	add	r3, r2
     cac:	f5b3 7f80 	cmp.w	r3, #256	; 0x100
     cb0:	d8f7      	bhi.n	ca2 <uartPutData+0x26>
  }

  /* Fill dataPtr[0:dataLen-1] into txBuffer */
  while (i < dataLen)
     cb2:	e013      	b.n	cdc <uartPutData+0x60>
  {
    txBuf.data[txBuf.wrI] = *(dataPtr + i);
     cb4:	4b15      	ldr	r3, [pc, #84]	; (d0c <uartPutData+0x90>)
     cb6:	f8d3 3104 	ldr.w	r3, [r3, #260]	; 0x104
     cba:	9901      	ldr	r1, [sp, #4]
     cbc:	9a03      	ldr	r2, [sp, #12]
     cbe:	440a      	add	r2, r1
     cc0:	7811      	ldrb	r1, [r2, #0]
     cc2:	4a12      	ldr	r2, [pc, #72]	; (d0c <uartPutData+0x90>)
     cc4:	54d1      	strb	r1, [r2, r3]
    txBuf.wrI             = (txBuf.wrI + 1) % BUFFERSIZE;
     cc6:	4b11      	ldr	r3, [pc, #68]	; (d0c <uartPutData+0x90>)
     cc8:	f8d3 3104 	ldr.w	r3, [r3, #260]	; 0x104
     ccc:	3301      	adds	r3, #1
     cce:	b2db      	uxtb	r3, r3
     cd0:	4a0e      	ldr	r2, [pc, #56]	; (d0c <uartPutData+0x90>)
     cd2:	f8c2 3104 	str.w	r3, [r2, #260]	; 0x104
    i++;
     cd6:	9b03      	ldr	r3, [sp, #12]
     cd8:	3301      	adds	r3, #1
     cda:	9303      	str	r3, [sp, #12]
    /* Wait until room */
    while ((txBuf.pendingBytes + dataLen) > BUFFERSIZE) ;
  }

  /* Fill dataPtr[0:dataLen-1] into txBuffer */
  while (i < dataLen)
     cdc:	9a03      	ldr	r2, [sp, #12]
     cde:	9b00      	ldr	r3, [sp, #0]
     ce0:	429a      	cmp	r2, r3
     ce2:	d3e7      	bcc.n	cb4 <uartPutData+0x38>
    txBuf.wrI             = (txBuf.wrI + 1) % BUFFERSIZE;
    i++;
  }

  /* Increment pending byte counter */
  txBuf.pendingBytes += dataLen;
     ce4:	4b09      	ldr	r3, [pc, #36]	; (d0c <uartPutData+0x90>)
     ce6:	f8d3 2108 	ldr.w	r2, [r3, #264]	; 0x108
     cea:	9b00      	ldr	r3, [sp, #0]
     cec:	4413      	add	r3, r2
     cee:	4a07      	ldr	r2, [pc, #28]	; (d0c <uartPutData+0x90>)
     cf0:	f8c2 3108 	str.w	r3, [r2, #264]	; 0x108

  /* Enable interrupt on USART TX Buffer*/
  USART_IntEnable(uart, UART_IF_TXBL);
     cf4:	4b06      	ldr	r3, [pc, #24]	; (d10 <uartPutData+0x94>)
     cf6:	681b      	ldr	r3, [r3, #0]
     cf8:	2102      	movs	r1, #2
     cfa:	4618      	mov	r0, r3
     cfc:	f7ff ff0a 	bl	b14 <USART_IntEnable>
     d00:	e000      	b.n	d04 <uartPutData+0x88>
  uint32_t i = 0;

  /* Check if buffer is large enough for data */
  if (dataLen > BUFFERSIZE) {
    /* Buffer can never fit the requested amount of data */
    return;
     d02:	bf00      	nop
  /* Increment pending byte counter */
  txBuf.pendingBytes += dataLen;

  /* Enable interrupt on USART TX Buffer*/
  USART_IntEnable(uart, UART_IF_TXBL);
}
     d04:	b005      	add	sp, #20
     d06:	f85d fb04 	ldr.w	pc, [sp], #4
     d0a:	bf00      	nop
     d0c:	20000674 	.word	0x20000674
     d10:	2000013c 	.word	0x2000013c

00000d14 <uartGetData>:

/******************************************************************************
 * @brief  uartGetData function
 *
 *****************************************************************************/
uint32_t uartGetData(uint8_t * dataPtr, uint32_t dataLen) {
     d14:	b084      	sub	sp, #16
     d16:	9001      	str	r0, [sp, #4]
     d18:	9100      	str	r1, [sp, #0]
  uint32_t i = 0;
     d1a:	2300      	movs	r3, #0
     d1c:	9303      	str	r3, [sp, #12]

  /* Wait until the requested number of bytes are available */
  if (rxBuf.pendingBytes < dataLen) {
     d1e:	4b1d      	ldr	r3, [pc, #116]	; (d94 <uartGetData+0x80>)
     d20:	f8d3 2108 	ldr.w	r2, [r3, #264]	; 0x108
     d24:	9b00      	ldr	r3, [sp, #0]
     d26:	429a      	cmp	r2, r3
     d28:	d206      	bcs.n	d38 <uartGetData+0x24>
    while (rxBuf.pendingBytes < dataLen) ;
     d2a:	bf00      	nop
     d2c:	4b19      	ldr	r3, [pc, #100]	; (d94 <uartGetData+0x80>)
     d2e:	f8d3 2108 	ldr.w	r2, [r3, #264]	; 0x108
     d32:	9b00      	ldr	r3, [sp, #0]
     d34:	429a      	cmp	r2, r3
     d36:	d3f9      	bcc.n	d2c <uartGetData+0x18>
  }

  if (dataLen == 0) {
     d38:	9b00      	ldr	r3, [sp, #0]
     d3a:	2b00      	cmp	r3, #0
     d3c:	d119      	bne.n	d72 <uartGetData+0x5e>
    dataLen = rxBuf.pendingBytes;
     d3e:	4b15      	ldr	r3, [pc, #84]	; (d94 <uartGetData+0x80>)
     d40:	f8d3 3108 	ldr.w	r3, [r3, #264]	; 0x108
     d44:	9300      	str	r3, [sp, #0]
  }

  /* Copy data from Rx buffer to dataPtr */
  while (i < dataLen) {
     d46:	e014      	b.n	d72 <uartGetData+0x5e>
    *(dataPtr + i) = rxBuf.data[rxBuf.rdI];
     d48:	9a01      	ldr	r2, [sp, #4]
     d4a:	9b03      	ldr	r3, [sp, #12]
     d4c:	4413      	add	r3, r2
     d4e:	4a11      	ldr	r2, [pc, #68]	; (d94 <uartGetData+0x80>)
     d50:	f8d2 2100 	ldr.w	r2, [r2, #256]	; 0x100
     d54:	490f      	ldr	r1, [pc, #60]	; (d94 <uartGetData+0x80>)
     d56:	5c8a      	ldrb	r2, [r1, r2]
     d58:	b2d2      	uxtb	r2, r2
     d5a:	701a      	strb	r2, [r3, #0]
    rxBuf.rdI      = (rxBuf.rdI + 1) % BUFFERSIZE;
     d5c:	4b0d      	ldr	r3, [pc, #52]	; (d94 <uartGetData+0x80>)
     d5e:	f8d3 3100 	ldr.w	r3, [r3, #256]	; 0x100
     d62:	3301      	adds	r3, #1
     d64:	b2db      	uxtb	r3, r3
     d66:	4a0b      	ldr	r2, [pc, #44]	; (d94 <uartGetData+0x80>)
     d68:	f8c2 3100 	str.w	r3, [r2, #256]	; 0x100
    i++;
     d6c:	9b03      	ldr	r3, [sp, #12]
     d6e:	3301      	adds	r3, #1
     d70:	9303      	str	r3, [sp, #12]
  if (dataLen == 0) {
    dataLen = rxBuf.pendingBytes;
  }

  /* Copy data from Rx buffer to dataPtr */
  while (i < dataLen) {
     d72:	9a03      	ldr	r2, [sp, #12]
     d74:	9b00      	ldr	r3, [sp, #0]
     d76:	429a      	cmp	r2, r3
     d78:	d3e6      	bcc.n	d48 <uartGetData+0x34>
    rxBuf.rdI      = (rxBuf.rdI + 1) % BUFFERSIZE;
    i++;
  }

  /* Decrement pending byte counter */
  rxBuf.pendingBytes -= dataLen;
     d7a:	4b06      	ldr	r3, [pc, #24]	; (d94 <uartGetData+0x80>)
     d7c:	f8d3 2108 	ldr.w	r2, [r3, #264]	; 0x108
     d80:	9b00      	ldr	r3, [sp, #0]
     d82:	1ad3      	subs	r3, r2, r3
     d84:	4a03      	ldr	r2, [pc, #12]	; (d94 <uartGetData+0x80>)
     d86:	f8c2 3108 	str.w	r3, [r2, #264]	; 0x108

  return i;
     d8a:	9b03      	ldr	r3, [sp, #12]
}
     d8c:	4618      	mov	r0, r3
     d8e:	b004      	add	sp, #16
     d90:	4770      	bx	lr
     d92:	bf00      	nop
     d94:	200010a8 	.word	0x200010a8

00000d98 <cmuSetup>:

/***************************************************************************//**
 * @brief Set up Clock Management Unit
 ******************************************************************************/
void cmuSetup(void) {
     d98:	b508      	push	{r3, lr}

  /* Disable HFRCO */
  /* CMU_OscillatorEnable( cmuOsc_HFRCO, false, false ); */

  /* Enable clock for HF peripherals */
  CMU_ClockEnable(cmuClock_HFPER, true);
     d9a:	2101      	movs	r1, #1
     d9c:	4804      	ldr	r0, [pc, #16]	; (db0 <cmuSetup+0x18>)
     d9e:	f001 fc83 	bl	26a8 <CMU_ClockEnable>

  /* Enable clock for USART module */
  CMU_ClockEnable(cmuClock_UART1, true);
     da2:	2101      	movs	r1, #1
     da4:	4803      	ldr	r0, [pc, #12]	; (db4 <cmuSetup+0x1c>)
     da6:	f001 fc7f 	bl	26a8 <CMU_ClockEnable>
}
     daa:	bf00      	nop
     dac:	bd08      	pop	{r3, pc}
     dae:	bf00      	nop
     db0:	00048140 	.word	0x00048140
     db4:	00044200 	.word	0x00044200

00000db8 <UART1_RX_IRQHandler>:
 * Set up the interrupt prior to use
 *
 * Note that this function handles overflows in a very simple way.
 *
 *****************************************************************************/
void UART1_RX_IRQHandler(void) {
     db8:	b500      	push	{lr}
     dba:	b083      	sub	sp, #12
  /* Check for RX data valid interrupt */
  if (uart->STATUS & UART_STATUS_RXDATAV) {
     dbc:	4b11      	ldr	r3, [pc, #68]	; (e04 <UART1_RX_IRQHandler+0x4c>)
     dbe:	681b      	ldr	r3, [r3, #0]
     dc0:	691b      	ldr	r3, [r3, #16]
     dc2:	f003 0380 	and.w	r3, r3, #128	; 0x80
     dc6:	2b00      	cmp	r3, #0
     dc8:	d017      	beq.n	dfa <UART1_RX_IRQHandler+0x42>
    /* Copy data into RX Buffer */
    uint8_t rxData = USART_Rx(uart);
     dca:	4b0e      	ldr	r3, [pc, #56]	; (e04 <UART1_RX_IRQHandler+0x4c>)
     dcc:	681b      	ldr	r3, [r3, #0]
     dce:	4618      	mov	r0, r3
     dd0:	f002 fe52 	bl	3a78 <USART_Rx>
     dd4:	4603      	mov	r3, r0
     dd6:	f88d 3007 	strb.w	r3, [sp, #7]
    GPIO_PinModeSet(gpioPortE, 1, gpioModePushPull, 1);
     dda:	2301      	movs	r3, #1
     ddc:	2204      	movs	r2, #4
     dde:	2101      	movs	r1, #1
     de0:	2004      	movs	r0, #4
     de2:	f002 fbaf 	bl	3544 <GPIO_PinModeSet>
    //Flag Rx overflow
    if (rxBuf.pendingBytes > BUFFERSIZE) {
      rxBuf.overflow = true;
    }*/

	recv_callback(rxData);
     de6:	4b08      	ldr	r3, [pc, #32]	; (e08 <UART1_RX_IRQHandler+0x50>)
     de8:	681b      	ldr	r3, [r3, #0]
     dea:	f89d 2007 	ldrb.w	r2, [sp, #7]
     dee:	4610      	mov	r0, r2
     df0:	4798      	blx	r3

    /* Clear RXDATAV interrupt */
    USART_IntClear(UART1, UART_IF_RXDATAV);
     df2:	2104      	movs	r1, #4
     df4:	4805      	ldr	r0, [pc, #20]	; (e0c <UART1_RX_IRQHandler+0x54>)
     df6:	f7ff fe75 	bl	ae4 <USART_IntClear>
  }
}
     dfa:	bf00      	nop
     dfc:	b003      	add	sp, #12
     dfe:	f85d fb04 	ldr.w	pc, [sp], #4
     e02:	bf00      	nop
     e04:	2000013c 	.word	0x2000013c
     e08:	200010a4 	.word	0x200010a4
     e0c:	4000e400 	.word	0x4000e400

00000e10 <UART1_TX_IRQHandler>:
 * @brief UART1 TX IRQ Handler
 *
 * Set up the interrupt prior to use
 *
 *****************************************************************************/
void UART1_TX_IRQHandler(void) {
     e10:	b508      	push	{r3, lr}
  /* Clear interrupt flags by reading them. */
  USART_IntGet(UART1);
     e12:	481e      	ldr	r0, [pc, #120]	; (e8c <UART1_TX_IRQHandler+0x7c>)
     e14:	f7ff fe8a 	bl	b2c <USART_IntGet>

  /* Check TX buffer level status */
  if (uart->STATUS & UART_STATUS_TXBL)
     e18:	4b1d      	ldr	r3, [pc, #116]	; (e90 <UART1_TX_IRQHandler+0x80>)
     e1a:	681b      	ldr	r3, [r3, #0]
     e1c:	691b      	ldr	r3, [r3, #16]
     e1e:	f003 0340 	and.w	r3, r3, #64	; 0x40
     e22:	2b00      	cmp	r3, #0
     e24:	d02f      	beq.n	e86 <UART1_TX_IRQHandler+0x76>
  {
	GPIO_PinModeSet(gpioPortE, 0, gpioModePushPull, 1);
     e26:	2301      	movs	r3, #1
     e28:	2204      	movs	r2, #4
     e2a:	2100      	movs	r1, #0
     e2c:	2004      	movs	r0, #4
     e2e:	f002 fb89 	bl	3544 <GPIO_PinModeSet>
    if (txBuf.pendingBytes > 0)
     e32:	4b18      	ldr	r3, [pc, #96]	; (e94 <UART1_TX_IRQHandler+0x84>)
     e34:	f8d3 3108 	ldr.w	r3, [r3, #264]	; 0x108
     e38:	2b00      	cmp	r3, #0
     e3a:	d019      	beq.n	e70 <UART1_TX_IRQHandler+0x60>
    {
      /* Transmit pending character */
      USART_Tx(uart, txBuf.data[txBuf.rdI]);
     e3c:	4b14      	ldr	r3, [pc, #80]	; (e90 <UART1_TX_IRQHandler+0x80>)
     e3e:	6818      	ldr	r0, [r3, #0]
     e40:	4b14      	ldr	r3, [pc, #80]	; (e94 <UART1_TX_IRQHandler+0x84>)
     e42:	f8d3 3100 	ldr.w	r3, [r3, #256]	; 0x100
     e46:	4a13      	ldr	r2, [pc, #76]	; (e94 <UART1_TX_IRQHandler+0x84>)
     e48:	5cd3      	ldrb	r3, [r2, r3]
     e4a:	b2db      	uxtb	r3, r3
     e4c:	4619      	mov	r1, r3
     e4e:	f002 fe23 	bl	3a98 <USART_Tx>
      txBuf.rdI = (txBuf.rdI + 1) % BUFFERSIZE;
     e52:	4b10      	ldr	r3, [pc, #64]	; (e94 <UART1_TX_IRQHandler+0x84>)
     e54:	f8d3 3100 	ldr.w	r3, [r3, #256]	; 0x100
     e58:	3301      	adds	r3, #1
     e5a:	b2db      	uxtb	r3, r3
     e5c:	4a0d      	ldr	r2, [pc, #52]	; (e94 <UART1_TX_IRQHandler+0x84>)
     e5e:	f8c2 3100 	str.w	r3, [r2, #256]	; 0x100
      txBuf.pendingBytes--;
     e62:	4b0c      	ldr	r3, [pc, #48]	; (e94 <UART1_TX_IRQHandler+0x84>)
     e64:	f8d3 3108 	ldr.w	r3, [r3, #264]	; 0x108
     e68:	3b01      	subs	r3, #1
     e6a:	4a0a      	ldr	r2, [pc, #40]	; (e94 <UART1_TX_IRQHandler+0x84>)
     e6c:	f8c2 3108 	str.w	r3, [r2, #264]	; 0x108
    }

    /* Disable Tx interrupt if no more bytes in queue */
    if (txBuf.pendingBytes == 0)
     e70:	4b08      	ldr	r3, [pc, #32]	; (e94 <UART1_TX_IRQHandler+0x84>)
     e72:	f8d3 3108 	ldr.w	r3, [r3, #264]	; 0x108
     e76:	2b00      	cmp	r3, #0
     e78:	d105      	bne.n	e86 <UART1_TX_IRQHandler+0x76>
    {
      USART_IntDisable(uart, UART_IF_TXBL);
     e7a:	4b05      	ldr	r3, [pc, #20]	; (e90 <UART1_TX_IRQHandler+0x80>)
     e7c:	681b      	ldr	r3, [r3, #0]
     e7e:	2102      	movs	r1, #2
     e80:	4618      	mov	r0, r3
     e82:	f7ff fe39 	bl	af8 <USART_IntDisable>
    }
  }
}
     e86:	bf00      	nop
     e88:	bd08      	pop	{r3, pc}
     e8a:	bf00      	nop
     e8c:	4000e400 	.word	0x4000e400
     e90:	2000013c 	.word	0x2000013c
     e94:	20000674 	.word	0x20000674

00000e98 <set_recv_callback>:


void test_callback() {(*recv_callback)('a');}
void set_recv_callback(void (*f)(char)) {recv_callback = f;}
     e98:	b082      	sub	sp, #8
     e9a:	9001      	str	r0, [sp, #4]
     e9c:	4a02      	ldr	r2, [pc, #8]	; (ea8 <set_recv_callback+0x10>)
     e9e:	9b01      	ldr	r3, [sp, #4]
     ea0:	6013      	str	r3, [r2, #0]
     ea2:	bf00      	nop
     ea4:	b002      	add	sp, #8
     ea6:	4770      	bx	lr
     ea8:	200010a4 	.word	0x200010a4

00000eac <GPIO_PinOutClear>:
 *
 * @param[in] pin
 *   The pin to set.
 ******************************************************************************/
__STATIC_INLINE void GPIO_PinOutClear(GPIO_Port_TypeDef port, unsigned int pin)
{
     eac:	b082      	sub	sp, #8
     eae:	4603      	mov	r3, r0
     eb0:	9100      	str	r1, [sp, #0]
     eb2:	f88d 3007 	strb.w	r3, [sp, #7]
  EFM_ASSERT(GPIO_PORT_PIN_VALID(port, pin));
     eb6:	f89d 3007 	ldrb.w	r3, [sp, #7]
     eba:	2b00      	cmp	r3, #0
     ebc:	d012      	beq.n	ee4 <GPIO_PinOutClear+0x38>
     ebe:	f89d 3007 	ldrb.w	r3, [sp, #7]
     ec2:	2b01      	cmp	r3, #1
     ec4:	d00e      	beq.n	ee4 <GPIO_PinOutClear+0x38>
     ec6:	f89d 3007 	ldrb.w	r3, [sp, #7]
     eca:	2b02      	cmp	r3, #2
     ecc:	d00a      	beq.n	ee4 <GPIO_PinOutClear+0x38>
     ece:	f89d 3007 	ldrb.w	r3, [sp, #7]
     ed2:	2b03      	cmp	r3, #3
     ed4:	d006      	beq.n	ee4 <GPIO_PinOutClear+0x38>
     ed6:	f89d 3007 	ldrb.w	r3, [sp, #7]
     eda:	2b04      	cmp	r3, #4
     edc:	d002      	beq.n	ee4 <GPIO_PinOutClear+0x38>
     ede:	f89d 3007 	ldrb.w	r3, [sp, #7]
     ee2:	2b05      	cmp	r3, #5
#if defined(_GPIO_P_DOUTCLR_MASK)
  GPIO->P[port].DOUTCLR = 1 << pin;
     ee4:	4908      	ldr	r1, [pc, #32]	; (f08 <GPIO_PinOutClear+0x5c>)
     ee6:	f89d 2007 	ldrb.w	r2, [sp, #7]
     eea:	2001      	movs	r0, #1
     eec:	9b00      	ldr	r3, [sp, #0]
     eee:	fa00 f303 	lsl.w	r3, r0, r3
     ef2:	4618      	mov	r0, r3
     ef4:	4613      	mov	r3, r2
     ef6:	00db      	lsls	r3, r3, #3
     ef8:	4413      	add	r3, r2
     efa:	009b      	lsls	r3, r3, #2
     efc:	440b      	add	r3, r1
     efe:	3314      	adds	r3, #20
     f00:	6018      	str	r0, [r3, #0]
#else
  BUS_RegMaskedClear(&GPIO->P[port].DOUT, 1 << pin);
#endif
}
     f02:	bf00      	nop
     f04:	b002      	add	sp, #8
     f06:	4770      	bx	lr
     f08:	40006000 	.word	0x40006000

00000f0c <GPIO_PinOutSet>:
 *
 * @param[in] pin
 *   The pin to set.
 ******************************************************************************/
__STATIC_INLINE void GPIO_PinOutSet(GPIO_Port_TypeDef port, unsigned int pin)
{
     f0c:	b082      	sub	sp, #8
     f0e:	4603      	mov	r3, r0
     f10:	9100      	str	r1, [sp, #0]
     f12:	f88d 3007 	strb.w	r3, [sp, #7]
  EFM_ASSERT(GPIO_PORT_PIN_VALID(port, pin));
     f16:	f89d 3007 	ldrb.w	r3, [sp, #7]
     f1a:	2b00      	cmp	r3, #0
     f1c:	d012      	beq.n	f44 <GPIO_PinOutSet+0x38>
     f1e:	f89d 3007 	ldrb.w	r3, [sp, #7]
     f22:	2b01      	cmp	r3, #1
     f24:	d00e      	beq.n	f44 <GPIO_PinOutSet+0x38>
     f26:	f89d 3007 	ldrb.w	r3, [sp, #7]
     f2a:	2b02      	cmp	r3, #2
     f2c:	d00a      	beq.n	f44 <GPIO_PinOutSet+0x38>
     f2e:	f89d 3007 	ldrb.w	r3, [sp, #7]
     f32:	2b03      	cmp	r3, #3
     f34:	d006      	beq.n	f44 <GPIO_PinOutSet+0x38>
     f36:	f89d 3007 	ldrb.w	r3, [sp, #7]
     f3a:	2b04      	cmp	r3, #4
     f3c:	d002      	beq.n	f44 <GPIO_PinOutSet+0x38>
     f3e:	f89d 3007 	ldrb.w	r3, [sp, #7]
     f42:	2b05      	cmp	r3, #5
#if defined(_GPIO_P_DOUTSET_MASK)
  GPIO->P[port].DOUTSET = 1 << pin;
     f44:	4908      	ldr	r1, [pc, #32]	; (f68 <GPIO_PinOutSet+0x5c>)
     f46:	f89d 2007 	ldrb.w	r2, [sp, #7]
     f4a:	2001      	movs	r0, #1
     f4c:	9b00      	ldr	r3, [sp, #0]
     f4e:	fa00 f303 	lsl.w	r3, r0, r3
     f52:	4618      	mov	r0, r3
     f54:	4613      	mov	r3, r2
     f56:	00db      	lsls	r3, r3, #3
     f58:	4413      	add	r3, r2
     f5a:	009b      	lsls	r3, r3, #2
     f5c:	440b      	add	r3, r1
     f5e:	3310      	adds	r3, #16
     f60:	6018      	str	r0, [r3, #0]
#else
  BUS_RegMaskedSet(&GPIO->P[port].DOUT, 1 << pin);
#endif
}
     f62:	bf00      	nop
     f64:	b002      	add	sp, #8
     f66:	4770      	bx	lr
     f68:	40006000 	.word	0x40006000

00000f6c <BSP_Disable>:
 *
 * @return
 *   @ref BSP_STATUS_OK on DK's, @ref BSP_STATUS_NOT_IMPLEMENTED on STK's.
 *****************************************************************************/
int BSP_Disable(void)
{
     f6c:	b508      	push	{r3, lr}
  if (bspOperationMode == BSP_INIT_DK_EBI)
     f6e:	4b09      	ldr	r3, [pc, #36]	; (f94 <BSP_Disable+0x28>)
     f70:	681b      	ldr	r3, [r3, #0]
     f72:	2b02      	cmp	r3, #2
     f74:	d101      	bne.n	f7a <BSP_Disable+0xe>
  {
    EbiDisable();
     f76:	f000 fb11 	bl	159c <EbiDisable>
  }
  if (bspOperationMode == BSP_INIT_DK_SPI)
     f7a:	4b06      	ldr	r3, [pc, #24]	; (f94 <BSP_Disable+0x28>)
     f7c:	681b      	ldr	r3, [r3, #0]
     f7e:	2b01      	cmp	r3, #1
     f80:	d101      	bne.n	f86 <BSP_Disable+0x1a>
  {
    SpiBcDisable();
     f82:	f000 fdc7 	bl	1b14 <SpiBcDisable>
  }
  BSP_BusControlModeSet(BSP_BusControl_OFF);
     f86:	2001      	movs	r0, #1
     f88:	f000 f84c 	bl	1024 <BSP_BusControlModeSet>

  return BSP_STATUS_OK;
     f8c:	2300      	movs	r3, #0
}
     f8e:	4618      	mov	r0, r3
     f90:	bd08      	pop	{r3, pc}
     f92:	bf00      	nop
     f94:	20000784 	.word	0x20000784

00000f98 <BSP_Init>:
 *             0 on all other kits.
 *
 * @return @ref BSP_STATUS_OK
 *****************************************************************************/
int BSP_Init(uint32_t flags)
{
     f98:	b500      	push	{lr}
     f9a:	b085      	sub	sp, #20
     f9c:	9001      	str	r0, [sp, #4]
  bool ret = false;
     f9e:	2300      	movs	r3, #0
     fa0:	f88d 300f 	strb.w	r3, [sp, #15]

  if (flags & BSP_INIT_DK_EBI)
     fa4:	9b01      	ldr	r3, [sp, #4]
     fa6:	f003 0302 	and.w	r3, r3, #2
     faa:	2b00      	cmp	r3, #0
     fac:	d00a      	beq.n	fc4 <BSP_Init+0x2c>
  {
    bspOperationMode = BSP_INIT_DK_EBI;
     fae:	4b19      	ldr	r3, [pc, #100]	; (1014 <BSP_Init+0x7c>)
     fb0:	2202      	movs	r2, #2
     fb2:	601a      	str	r2, [r3, #0]
    BSP_BusControlModeSet(BSP_BusControl_EBI);
     fb4:	2004      	movs	r0, #4
     fb6:	f000 f835 	bl	1024 <BSP_BusControlModeSet>
    ret = EbiInit();
     fba:	f000 fbc1 	bl	1740 <EbiInit>
     fbe:	4603      	mov	r3, r0
     fc0:	f88d 300f 	strb.w	r3, [sp, #15]
  }
  if (flags & BSP_INIT_DK_SPI)
     fc4:	9b01      	ldr	r3, [sp, #4]
     fc6:	f003 0301 	and.w	r3, r3, #1
     fca:	2b00      	cmp	r3, #0
     fcc:	d00a      	beq.n	fe4 <BSP_Init+0x4c>
  {
    bspOperationMode = BSP_INIT_DK_SPI;
     fce:	4b11      	ldr	r3, [pc, #68]	; (1014 <BSP_Init+0x7c>)
     fd0:	2201      	movs	r2, #1
     fd2:	601a      	str	r2, [r3, #0]
    BSP_BusControlModeSet(BSP_BusControl_SPI);
     fd4:	2003      	movs	r0, #3
     fd6:	f000 f825 	bl	1024 <BSP_BusControlModeSet>
    ret = SpiInit();
     fda:	f000 fe37 	bl	1c4c <SpiInit>
     fde:	4603      	mov	r3, r0
     fe0:	f88d 300f 	strb.w	r3, [sp, #15]
  }

  if (ret == false)
     fe4:	f89d 300f 	ldrb.w	r3, [sp, #15]
     fe8:	f083 0301 	eor.w	r3, r3, #1
     fec:	b2db      	uxtb	r3, r3
     fee:	2b00      	cmp	r3, #0
     ff0:	d000      	beq.n	ff4 <BSP_Init+0x5c>
  {
    /* Unable to access board control, this is an abornomal situation. */
    /* Try to restart kit and reprogram EFM32 with a standard example */
    /* as this is most likely caused by a peripheral misconfiguration. */
    while (1) ;
     ff2:	e7fe      	b.n	ff2 <BSP_Init+0x5a>
  }

  /* Inform AEM application that we are in Energy Mode 0 by default */
  BSP_RegisterWrite(&BC_REGISTER->EM, 0);
     ff4:	2100      	movs	r1, #0
     ff6:	4808      	ldr	r0, [pc, #32]	; (1018 <BSP_Init+0x80>)
     ff8:	f000 fab4 	bl	1564 <BSP_RegisterWrite>

  /* Read out BC firmware version */
  bcFwVersion = BSP_RegisterRead(&BC_REGISTER->FW_VERSION);
     ffc:	4807      	ldr	r0, [pc, #28]	; (101c <BSP_Init+0x84>)
     ffe:	f000 fa9b 	bl	1538 <BSP_RegisterRead>
    1002:	4603      	mov	r3, r0
    1004:	461a      	mov	r2, r3
    1006:	4b06      	ldr	r3, [pc, #24]	; (1020 <BSP_Init+0x88>)
    1008:	801a      	strh	r2, [r3, #0]

  return BSP_STATUS_OK;
    100a:	2300      	movs	r3, #0
}
    100c:	4618      	mov	r0, r3
    100e:	b005      	add	sp, #20
    1010:	f85d fb04 	ldr.w	pc, [sp], #4
    1014:	20000784 	.word	0x20000784
    1018:	80000002 	.word	0x80000002
    101c:	8000002c 	.word	0x8000002c
    1020:	20000790 	.word	0x20000790

00001024 <BSP_BusControlModeSet>:
 *
 * @return @ref BSP_STATUS_OK or @ref BSP_STATUS_ILLEGAL_PARAM.
 *         @ref BSP_STATUS_NOT_IMPLEMENTED on Gxxx_DK's.
 *****************************************************************************/
int BSP_BusControlModeSet(BSP_BusControl_TypeDef mode)
{
    1024:	b500      	push	{lr}
    1026:	b085      	sub	sp, #20
    1028:	4603      	mov	r3, r0
    102a:	f88d 3007 	strb.w	r3, [sp, #7]
  int retVal = BSP_STATUS_OK;
    102e:	2300      	movs	r3, #0
    1030:	9303      	str	r3, [sp, #12]

  /* Configure GPIO pins for Board Bus mode */
  /* Note: Inverter on GPIO lines to BC, so signals are active low */
  CMU_ClockEnable(cmuClock_GPIO, true);
    1032:	2101      	movs	r1, #1
    1034:	482a      	ldr	r0, [pc, #168]	; (10e0 <BSP_BusControlModeSet+0xbc>)
    1036:	f001 fb37 	bl	26a8 <CMU_ClockEnable>

  busMode = mode;
    103a:	4a2a      	ldr	r2, [pc, #168]	; (10e4 <BSP_BusControlModeSet+0xc0>)
    103c:	f89d 3007 	ldrb.w	r3, [sp, #7]
    1040:	7013      	strb	r3, [r2, #0]

  switch (mode)
    1042:	f89d 3007 	ldrb.w	r3, [sp, #7]
    1046:	3b01      	subs	r3, #1
    1048:	2b03      	cmp	r3, #3
    104a:	d83f      	bhi.n	10cc <BSP_BusControlModeSet+0xa8>
    104c:	a201      	add	r2, pc, #4	; (adr r2, 1054 <BSP_BusControlModeSet+0x30>)
    104e:	f852 f023 	ldr.w	pc, [r2, r3, lsl #2]
    1052:	bf00      	nop
    1054:	00001065 	.word	0x00001065
    1058:	0000107f 	.word	0x0000107f
    105c:	00001099 	.word	0x00001099
    1060:	000010b3 	.word	0x000010b3
  {
    case BSP_BusControl_OFF:
      /* Configure board for OFF mode on PB15 MCU_EBI_CONNECT */
      GPIO_PinModeSet(gpioPortB, 15, gpioModePushPull, 1);
    1064:	2301      	movs	r3, #1
    1066:	2204      	movs	r2, #4
    1068:	210f      	movs	r1, #15
    106a:	2001      	movs	r0, #1
    106c:	f002 fa6a 	bl	3544 <GPIO_PinModeSet>
      /* Configure board for OFF mode on PD13 MCU_SPI_CONNECT */
      GPIO_PinModeSet(gpioPortD, 13, gpioModePushPull, 1);
    1070:	2301      	movs	r3, #1
    1072:	2204      	movs	r2, #4
    1074:	210d      	movs	r1, #13
    1076:	2003      	movs	r0, #3
    1078:	f002 fa64 	bl	3544 <GPIO_PinModeSet>
      break;
    107c:	e02a      	b.n	10d4 <BSP_BusControlModeSet+0xb0>

    case BSP_BusControl_DIRECT:
      /* Configure board for DIRECT on PB15 MCU_EBI_CONNECT */
      GPIO_PinModeSet(gpioPortB, 15, gpioModePushPull, 0);
    107e:	2300      	movs	r3, #0
    1080:	2204      	movs	r2, #4
    1082:	210f      	movs	r1, #15
    1084:	2001      	movs	r0, #1
    1086:	f002 fa5d 	bl	3544 <GPIO_PinModeSet>
      /* Configure board for DIRECT on PD13 MCU_SPI_CONNECT */
      GPIO_PinModeSet(gpioPortD, 13, gpioModePushPull, 0);
    108a:	2300      	movs	r3, #0
    108c:	2204      	movs	r2, #4
    108e:	210d      	movs	r1, #13
    1090:	2003      	movs	r0, #3
    1092:	f002 fa57 	bl	3544 <GPIO_PinModeSet>
      break;
    1096:	e01d      	b.n	10d4 <BSP_BusControlModeSet+0xb0>

    case BSP_BusControl_SPI:
      /* Configure board for SPI mode on PB15 MCU_EBI_CONNECT */
      GPIO_PinModeSet(gpioPortB, 15, gpioModePushPull, 1);
    1098:	2301      	movs	r3, #1
    109a:	2204      	movs	r2, #4
    109c:	210f      	movs	r1, #15
    109e:	2001      	movs	r0, #1
    10a0:	f002 fa50 	bl	3544 <GPIO_PinModeSet>
      /* Configure board for SPI mode on PD13 MCU_SPI_CONNECT */
      GPIO_PinModeSet(gpioPortD, 13, gpioModePushPull, 0);
    10a4:	2300      	movs	r3, #0
    10a6:	2204      	movs	r2, #4
    10a8:	210d      	movs	r1, #13
    10aa:	2003      	movs	r0, #3
    10ac:	f002 fa4a 	bl	3544 <GPIO_PinModeSet>
      break;
    10b0:	e010      	b.n	10d4 <BSP_BusControlModeSet+0xb0>

    case BSP_BusControl_EBI:
      /* Configure board for EBI mode on PB15 MCU_EBI_CONNECT */
      GPIO_PinModeSet(gpioPortB, 15, gpioModePushPull, 0);
    10b2:	2300      	movs	r3, #0
    10b4:	2204      	movs	r2, #4
    10b6:	210f      	movs	r1, #15
    10b8:	2001      	movs	r0, #1
    10ba:	f002 fa43 	bl	3544 <GPIO_PinModeSet>
      /* Configure board for EBI mode on PD13 MCU_SPI_CONNECT */
      GPIO_PinModeSet(gpioPortD, 13, gpioModePushPull, 1);
    10be:	2301      	movs	r3, #1
    10c0:	2204      	movs	r2, #4
    10c2:	210d      	movs	r1, #13
    10c4:	2003      	movs	r0, #3
    10c6:	f002 fa3d 	bl	3544 <GPIO_PinModeSet>
      break;
    10ca:	e003      	b.n	10d4 <BSP_BusControlModeSet+0xb0>

    default:
      retVal = BSP_STATUS_ILLEGAL_PARAM;
    10cc:	f04f 33ff 	mov.w	r3, #4294967295	; 0xffffffff
    10d0:	9303      	str	r3, [sp, #12]
      break;
    10d2:	bf00      	nop
  }
  return retVal;
    10d4:	9b03      	ldr	r3, [sp, #12]
}
    10d6:	4618      	mov	r0, r3
    10d8:	b005      	add	sp, #20
    10da:	f85d fb04 	ldr.w	pc, [sp], #4
    10de:	bf00      	nop
    10e0:	0004d200 	.word	0x0004d200
    10e4:	20000788 	.word	0x20000788

000010e8 <BSP_EbiExtendedAddressRange>:
 *
 * @return
 *   @ref BSP_STATUS_OK on DK3x50, @ref BSP_STATUS_NOT_IMPLEMENTED on Gxxx_DK's.
 *****************************************************************************/
int BSP_EbiExtendedAddressRange(bool enable)
{
    10e8:	b500      	push	{lr}
    10ea:	b083      	sub	sp, #12
    10ec:	4603      	mov	r3, r0
    10ee:	f88d 3007 	strb.w	r3, [sp, #7]
  if (enable)
    10f2:	f89d 3007 	ldrb.w	r3, [sp, #7]
    10f6:	2b00      	cmp	r3, #0
    10f8:	d004      	beq.n	1104 <BSP_EbiExtendedAddressRange+0x1c>
  {
    BSP_RegisterWrite(&BC_REGISTER->EBI_CTRL, BC_EBI_CTRL_EXTADDR_MASK);
    10fa:	2101      	movs	r1, #1
    10fc:	4806      	ldr	r0, [pc, #24]	; (1118 <BSP_EbiExtendedAddressRange+0x30>)
    10fe:	f000 fa31 	bl	1564 <BSP_RegisterWrite>
    1102:	e003      	b.n	110c <BSP_EbiExtendedAddressRange+0x24>
  }
  else
  {
    BSP_RegisterWrite(&BC_REGISTER->EBI_CTRL, 0);
    1104:	2100      	movs	r1, #0
    1106:	4804      	ldr	r0, [pc, #16]	; (1118 <BSP_EbiExtendedAddressRange+0x30>)
    1108:	f000 fa2c 	bl	1564 <BSP_RegisterWrite>
  }
  return BSP_STATUS_OK;
    110c:	2300      	movs	r3, #0
}
    110e:	4618      	mov	r0, r3
    1110:	b003      	add	sp, #12
    1112:	f85d fb04 	ldr.w	pc, [sp], #4
    1116:	bf00      	nop
    1118:	80000014 	.word	0x80000014

0000111c <BSP_PeripheralAccess>:
 *
 * @return
 *   @ref BSP_STATUS_OK.
 *****************************************************************************/
int BSP_PeripheralAccess(BSP_Peripheral_TypeDef perf, bool enable)
{
    111c:	b500      	push	{lr}
    111e:	b085      	sub	sp, #20
    1120:	4603      	mov	r3, r0
    1122:	460a      	mov	r2, r1
    1124:	f88d 3007 	strb.w	r3, [sp, #7]
    1128:	4613      	mov	r3, r2
    112a:	f88d 3006 	strb.w	r3, [sp, #6]
  uint16_t perfControl;

  perfControl = BSP_RegisterRead(&BC_REGISTER->PERICON);
    112e:	48eb      	ldr	r0, [pc, #940]	; (14dc <BSP_PeripheralAccess+0x3c0>)
    1130:	f000 fa02 	bl	1538 <BSP_RegisterRead>
    1134:	4603      	mov	r3, r0
    1136:	f8ad 300e 	strh.w	r3, [sp, #14]

  /* Enable or disable the specified peripheral by setting board control switch */
  if (enable)
    113a:	f89d 3006 	ldrb.w	r3, [sp, #6]
    113e:	2b00      	cmp	r3, #0
    1140:	f000 8129 	beq.w	1396 <BSP_PeripheralAccess+0x27a>
  {
    switch (perf)
    1144:	f89d 3007 	ldrb.w	r3, [sp, #7]
    1148:	2b0d      	cmp	r3, #13
    114a:	f200 81e7 	bhi.w	151c <BSP_PeripheralAccess+0x400>
    114e:	a201      	add	r2, pc, #4	; (adr r2, 1154 <BSP_PeripheralAccess+0x38>)
    1150:	f852 f023 	ldr.w	pc, [r2, r3, lsl #2]
    1154:	0000118d 	.word	0x0000118d
    1158:	0000119b 	.word	0x0000119b
    115c:	000011c1 	.word	0x000011c1
    1160:	000011e7 	.word	0x000011e7
    1164:	000011f5 	.word	0x000011f5
    1168:	00001239 	.word	0x00001239
    116c:	00001295 	.word	0x00001295
    1170:	000012a3 	.word	0x000012a3
    1174:	000012cf 	.word	0x000012cf
    1178:	000012dd 	.word	0x000012dd
    117c:	000012f7 	.word	0x000012f7
    1180:	00001323 	.word	0x00001323
    1184:	0000134f 	.word	0x0000134f
    1188:	0000135d 	.word	0x0000135d
    {
    case BSP_RS232_SHUTDOWN:
      perfControl |= (1 << BC_PERICON_RS232_SHUTDOWN_SHIFT);
    118c:	f8bd 300e 	ldrh.w	r3, [sp, #14]
    1190:	f443 5300 	orr.w	r3, r3, #8192	; 0x2000
    1194:	f8ad 300e 	strh.w	r3, [sp, #14]
      break;
    1198:	e1c0      	b.n	151c <BSP_PeripheralAccess+0x400>

    case BSP_RS232_UART:
      perfControl &= ~(1 << BC_PERICON_RS232_SHUTDOWN_SHIFT);
    119a:	f8bd 300e 	ldrh.w	r3, [sp, #14]
    119e:	f423 5300 	bic.w	r3, r3, #8192	; 0x2000
    11a2:	f8ad 300e 	strh.w	r3, [sp, #14]
      perfControl &= ~(1 << BC_PERICON_RS232_LEUART_SHIFT);
    11a6:	f8bd 300e 	ldrh.w	r3, [sp, #14]
    11aa:	f423 6300 	bic.w	r3, r3, #2048	; 0x800
    11ae:	f8ad 300e 	strh.w	r3, [sp, #14]
      perfControl |= (1 << BC_PERICON_RS232_UART_SHIFT);
    11b2:	f8bd 300e 	ldrh.w	r3, [sp, #14]
    11b6:	f443 5380 	orr.w	r3, r3, #4096	; 0x1000
    11ba:	f8ad 300e 	strh.w	r3, [sp, #14]
      break;
    11be:	e1ad      	b.n	151c <BSP_PeripheralAccess+0x400>

    case BSP_RS232_LEUART:
      perfControl &= ~(1 << BC_PERICON_RS232_SHUTDOWN_SHIFT);
    11c0:	f8bd 300e 	ldrh.w	r3, [sp, #14]
    11c4:	f423 5300 	bic.w	r3, r3, #8192	; 0x2000
    11c8:	f8ad 300e 	strh.w	r3, [sp, #14]
      perfControl &= ~(1 << BC_PERICON_RS232_UART_SHIFT);
    11cc:	f8bd 300e 	ldrh.w	r3, [sp, #14]
    11d0:	f423 5380 	bic.w	r3, r3, #4096	; 0x1000
    11d4:	f8ad 300e 	strh.w	r3, [sp, #14]
      perfControl |= (1 << BC_PERICON_RS232_LEUART_SHIFT);
    11d8:	f8bd 300e 	ldrh.w	r3, [sp, #14]
    11dc:	f443 6300 	orr.w	r3, r3, #2048	; 0x800
    11e0:	f8ad 300e 	strh.w	r3, [sp, #14]
      break;
    11e4:	e19a      	b.n	151c <BSP_PeripheralAccess+0x400>

    case BSP_I2C:
      perfControl |= (1 << BC_PERICON_I2C_SHIFT);
    11e6:	f8bd 300e 	ldrh.w	r3, [sp, #14]
    11ea:	f443 6380 	orr.w	r3, r3, #1024	; 0x400
    11ee:	f8ad 300e 	strh.w	r3, [sp, #14]
      break;
    11f2:	e193      	b.n	151c <BSP_PeripheralAccess+0x400>

    case BSP_ETH:
      /* Enable SPI interface */
      SpiControl(BSP_SPI_Ethernet);
    11f4:	2001      	movs	r0, #1
    11f6:	f000 fcf3 	bl	1be0 <SpiControl>

      /* Enable Ethernet analog switches */
      perfControl |= (1 << BC_PERICON_I2S_ETH_SHIFT);
    11fa:	f8bd 300e 	ldrh.w	r3, [sp, #14]
    11fe:	f443 7380 	orr.w	r3, r3, #256	; 0x100
    1202:	f8ad 300e 	strh.w	r3, [sp, #14]
      perfControl |= (1 << BC_PERICON_I2S_ETH_SEL_SHIFT);
    1206:	f8bd 300e 	ldrh.w	r3, [sp, #14]
    120a:	f443 7300 	orr.w	r3, r3, #512	; 0x200
    120e:	f8ad 300e 	strh.w	r3, [sp, #14]

      /* Disable Analog Diff Input - pins PD0 and PD1 is shared */
      perfControl &= ~(1 << BC_PERICON_ANALOG_DIFF_SHIFT);
    1212:	f8bd 300e 	ldrh.w	r3, [sp, #14]
    1216:	f023 0304 	bic.w	r3, r3, #4
    121a:	f8ad 300e 	strh.w	r3, [sp, #14]
      /* Disable Touch Inputs - pin PD3 is shared */
      perfControl &= ~(1 << BC_PERICON_TOUCH_SHIFT);
    121e:	f8bd 300e 	ldrh.w	r3, [sp, #14]
    1222:	f023 0340 	bic.w	r3, r3, #64	; 0x40
    1226:	f8ad 300e 	strh.w	r3, [sp, #14]
      /* Disable Analog SE Input - pin PD2 is shared */
      perfControl &= ~(1 << BC_PERICON_ANALOG_SE_SHIFT);
    122a:	f8bd 300e 	ldrh.w	r3, [sp, #14]
    122e:	f023 0302 	bic.w	r3, r3, #2
    1232:	f8ad 300e 	strh.w	r3, [sp, #14]
      break;
    1236:	e171      	b.n	151c <BSP_PeripheralAccess+0x400>

    case BSP_I2S:
      /* Direct SPI interface to I2S DAC */
      SpiControl(BSP_SPI_Audio);
    1238:	2000      	movs	r0, #0
    123a:	f000 fcd1 	bl	1be0 <SpiControl>

      /* Also make surea Audio out is connected for I2S operation */
      perfControl |= (1 << BC_PERICON_AUDIO_OUT_SHIFT);
    123e:	f8bd 300e 	ldrh.w	r3, [sp, #14]
    1242:	f043 0308 	orr.w	r3, r3, #8
    1246:	f8ad 300e 	strh.w	r3, [sp, #14]
      perfControl |= (1 << BC_PERICON_AUDIO_OUT_SEL_SHIFT);
    124a:	f8bd 300e 	ldrh.w	r3, [sp, #14]
    124e:	f043 0310 	orr.w	r3, r3, #16
    1252:	f8ad 300e 	strh.w	r3, [sp, #14]
      perfControl |= (1 << BC_PERICON_I2S_ETH_SHIFT);
    1256:	f8bd 300e 	ldrh.w	r3, [sp, #14]
    125a:	f443 7380 	orr.w	r3, r3, #256	; 0x100
    125e:	f8ad 300e 	strh.w	r3, [sp, #14]
      perfControl &= ~(1 << BC_PERICON_I2S_ETH_SEL_SHIFT);
    1262:	f8bd 300e 	ldrh.w	r3, [sp, #14]
    1266:	f423 7300 	bic.w	r3, r3, #512	; 0x200
    126a:	f8ad 300e 	strh.w	r3, [sp, #14]

      /* Disable Analog Diff Input - pins PD0 and PD1 is shared */
      perfControl &= ~(1 << BC_PERICON_ANALOG_DIFF_SHIFT);
    126e:	f8bd 300e 	ldrh.w	r3, [sp, #14]
    1272:	f023 0304 	bic.w	r3, r3, #4
    1276:	f8ad 300e 	strh.w	r3, [sp, #14]
      /* Disable Touch Inputs - pin PD3 is shared */
      perfControl &= ~(1 << BC_PERICON_TOUCH_SHIFT);
    127a:	f8bd 300e 	ldrh.w	r3, [sp, #14]
    127e:	f023 0340 	bic.w	r3, r3, #64	; 0x40
    1282:	f8ad 300e 	strh.w	r3, [sp, #14]
      /* Disable Analog SE Input - pin PD2 is shared */
      perfControl &= ~(1 << BC_PERICON_ANALOG_SE_SHIFT);
    1286:	f8bd 300e 	ldrh.w	r3, [sp, #14]
    128a:	f023 0302 	bic.w	r3, r3, #2
    128e:	f8ad 300e 	strh.w	r3, [sp, #14]
      break;
    1292:	e143      	b.n	151c <BSP_PeripheralAccess+0x400>

    case BSP_TRACE:
      #if defined(ETM_PRESENT)
        perfControl |= (1 << BC_PERICON_TRACE_SHIFT);
    1294:	f8bd 300e 	ldrh.w	r3, [sp, #14]
    1298:	f043 0380 	orr.w	r3, r3, #128	; 0x80
    129c:	f8ad 300e 	strh.w	r3, [sp, #14]
        break;
    12a0:	e13c      	b.n	151c <BSP_PeripheralAccess+0x400>
        /* TRACE is not available on EFM32G890F128, application error */
        while (1) ;
      #endif

    case BSP_TOUCH:
      perfControl |= (1 << BC_PERICON_TOUCH_SHIFT);
    12a2:	f8bd 300e 	ldrh.w	r3, [sp, #14]
    12a6:	f043 0340 	orr.w	r3, r3, #64	; 0x40
    12aa:	f8ad 300e 	strh.w	r3, [sp, #14]
      /* Disconnect SPI switch, pin PD3 is shared */
      perfControl &= ~(1 << BC_PERICON_I2S_ETH_SHIFT);
    12ae:	f8bd 300e 	ldrh.w	r3, [sp, #14]
    12b2:	f423 7380 	bic.w	r3, r3, #256	; 0x100
    12b6:	f8ad 300e 	strh.w	r3, [sp, #14]
      perfControl &= ~(1 << BC_PERICON_I2S_ETH_SEL_SHIFT);
    12ba:	f8bd 300e 	ldrh.w	r3, [sp, #14]
    12be:	f423 7300 	bic.w	r3, r3, #512	; 0x200
    12c2:	f8ad 300e 	strh.w	r3, [sp, #14]
      SpiControl(BSP_SPI_OFF);
    12c6:	2003      	movs	r0, #3
    12c8:	f000 fc8a 	bl	1be0 <SpiControl>
      break;
    12cc:	e126      	b.n	151c <BSP_PeripheralAccess+0x400>

    case BSP_AUDIO_IN:
      perfControl |= (1 << BC_PERICON_AUDIO_IN_SHIFT);
    12ce:	f8bd 300e 	ldrh.w	r3, [sp, #14]
    12d2:	f043 0320 	orr.w	r3, r3, #32
    12d6:	f8ad 300e 	strh.w	r3, [sp, #14]
      break;
    12da:	e11f      	b.n	151c <BSP_PeripheralAccess+0x400>

    case BSP_AUDIO_OUT:
      perfControl &= ~(1 << BC_PERICON_AUDIO_OUT_SEL_SHIFT);
    12dc:	f8bd 300e 	ldrh.w	r3, [sp, #14]
    12e0:	f023 0310 	bic.w	r3, r3, #16
    12e4:	f8ad 300e 	strh.w	r3, [sp, #14]
      perfControl |= (1 << BC_PERICON_AUDIO_OUT_SHIFT);
    12e8:	f8bd 300e 	ldrh.w	r3, [sp, #14]
    12ec:	f043 0308 	orr.w	r3, r3, #8
    12f0:	f8ad 300e 	strh.w	r3, [sp, #14]
      break;
    12f4:	e112      	b.n	151c <BSP_PeripheralAccess+0x400>

    case BSP_ANALOG_DIFF:
      perfControl |= (1 << BC_PERICON_ANALOG_DIFF_SHIFT);
    12f6:	f8bd 300e 	ldrh.w	r3, [sp, #14]
    12fa:	f043 0304 	orr.w	r3, r3, #4
    12fe:	f8ad 300e 	strh.w	r3, [sp, #14]
      /* Disconnect SPI switch, pin PD0 and PD1 is shared */
      perfControl &= ~(1 << BC_PERICON_I2S_ETH_SHIFT);
    1302:	f8bd 300e 	ldrh.w	r3, [sp, #14]
    1306:	f423 7380 	bic.w	r3, r3, #256	; 0x100
    130a:	f8ad 300e 	strh.w	r3, [sp, #14]
      perfControl &= ~(1 << BC_PERICON_I2S_ETH_SEL_SHIFT);
    130e:	f8bd 300e 	ldrh.w	r3, [sp, #14]
    1312:	f423 7300 	bic.w	r3, r3, #512	; 0x200
    1316:	f8ad 300e 	strh.w	r3, [sp, #14]
      SpiControl(BSP_SPI_OFF);
    131a:	2003      	movs	r0, #3
    131c:	f000 fc60 	bl	1be0 <SpiControl>
      break;
    1320:	e0fc      	b.n	151c <BSP_PeripheralAccess+0x400>

    case BSP_ANALOG_SE:
      perfControl |= (1 << BC_PERICON_ANALOG_SE_SHIFT);
    1322:	f8bd 300e 	ldrh.w	r3, [sp, #14]
    1326:	f043 0302 	orr.w	r3, r3, #2
    132a:	f8ad 300e 	strh.w	r3, [sp, #14]
      /* Disconnect SPI switch, pin PD2 is shared */
      perfControl &= ~(1 << BC_PERICON_I2S_ETH_SHIFT);
    132e:	f8bd 300e 	ldrh.w	r3, [sp, #14]
    1332:	f423 7380 	bic.w	r3, r3, #256	; 0x100
    1336:	f8ad 300e 	strh.w	r3, [sp, #14]
      perfControl &= ~(1 << BC_PERICON_I2S_ETH_SEL_SHIFT);
    133a:	f8bd 300e 	ldrh.w	r3, [sp, #14]
    133e:	f423 7300 	bic.w	r3, r3, #512	; 0x200
    1342:	f8ad 300e 	strh.w	r3, [sp, #14]
      SpiControl(BSP_SPI_OFF);
    1346:	2003      	movs	r0, #3
    1348:	f000 fc4a 	bl	1be0 <SpiControl>
      break;
    134c:	e0e6      	b.n	151c <BSP_PeripheralAccess+0x400>

    case BSP_MICROSD:
      perfControl |= (1 << BC_PERICON_SPI_SHIFT);
    134e:	f8bd 300e 	ldrh.w	r3, [sp, #14]
    1352:	f043 0301 	orr.w	r3, r3, #1
    1356:	f8ad 300e 	strh.w	r3, [sp, #14]
      break;
    135a:	e0df      	b.n	151c <BSP_PeripheralAccess+0x400>

    case BSP_TFT:
      /* Enable SPI to SSD2119 */
      SpiControl(BSP_SPI_Display);
    135c:	2002      	movs	r0, #2
    135e:	f000 fc3f 	bl	1be0 <SpiControl>
      /* Enable SPI analog switch */
      perfControl |= (1 << BC_PERICON_I2S_ETH_SHIFT);
    1362:	f8bd 300e 	ldrh.w	r3, [sp, #14]
    1366:	f443 7380 	orr.w	r3, r3, #256	; 0x100
    136a:	f8ad 300e 	strh.w	r3, [sp, #14]
      /* Disable Analog Diff Input - pins D0 and D1 is shared */
      perfControl &= ~(1 << BC_PERICON_ANALOG_DIFF_SHIFT);
    136e:	f8bd 300e 	ldrh.w	r3, [sp, #14]
    1372:	f023 0304 	bic.w	r3, r3, #4
    1376:	f8ad 300e 	strh.w	r3, [sp, #14]
      /* Disable Touch Inputs - pin D3 is shared */
      perfControl &= ~(1 << BC_PERICON_TOUCH_SHIFT);
    137a:	f8bd 300e 	ldrh.w	r3, [sp, #14]
    137e:	f023 0340 	bic.w	r3, r3, #64	; 0x40
    1382:	f8ad 300e 	strh.w	r3, [sp, #14]
      /* Disable Analog SE Input - pin D2 is shared */
      perfControl &= ~(1 << BC_PERICON_ANALOG_SE_SHIFT);
    1386:	f8bd 300e 	ldrh.w	r3, [sp, #14]
    138a:	f023 0302 	bic.w	r3, r3, #2
    138e:	f8ad 300e 	strh.w	r3, [sp, #14]
      break;
    1392:	bf00      	nop
    1394:	e0c2      	b.n	151c <BSP_PeripheralAccess+0x400>
    }
  }
  else
  {
    switch (perf)
    1396:	f89d 3007 	ldrb.w	r3, [sp, #7]
    139a:	2b0d      	cmp	r3, #13
    139c:	f200 80be 	bhi.w	151c <BSP_PeripheralAccess+0x400>
    13a0:	a201      	add	r2, pc, #4	; (adr r2, 13a8 <BSP_PeripheralAccess+0x28c>)
    13a2:	f852 f023 	ldr.w	pc, [r2, r3, lsl #2]
    13a6:	bf00      	nop
    13a8:	000013e1 	.word	0x000013e1
    13ac:	000013ef 	.word	0x000013ef
    13b0:	00001409 	.word	0x00001409
    13b4:	00001423 	.word	0x00001423
    13b8:	00001431 	.word	0x00001431
    13bc:	00001451 	.word	0x00001451
    13c0:	00001489 	.word	0x00001489
    13c4:	00001497 	.word	0x00001497
    13c8:	000014a5 	.word	0x000014a5
    13cc:	000014b3 	.word	0x000014b3
    13d0:	000014cd 	.word	0x000014cd
    13d4:	000014e1 	.word	0x000014e1
    13d8:	000014ef 	.word	0x000014ef
    13dc:	000014fd 	.word	0x000014fd
    {
    case BSP_RS232_SHUTDOWN:
      perfControl &= ~(1 << BC_PERICON_RS232_SHUTDOWN_SHIFT);
    13e0:	f8bd 300e 	ldrh.w	r3, [sp, #14]
    13e4:	f423 5300 	bic.w	r3, r3, #8192	; 0x2000
    13e8:	f8ad 300e 	strh.w	r3, [sp, #14]
      break;
    13ec:	e096      	b.n	151c <BSP_PeripheralAccess+0x400>

    case BSP_RS232_UART:
      perfControl |= (1 << BC_PERICON_RS232_SHUTDOWN_SHIFT);
    13ee:	f8bd 300e 	ldrh.w	r3, [sp, #14]
    13f2:	f443 5300 	orr.w	r3, r3, #8192	; 0x2000
    13f6:	f8ad 300e 	strh.w	r3, [sp, #14]
      perfControl &= ~(1 << BC_PERICON_RS232_UART_SHIFT);
    13fa:	f8bd 300e 	ldrh.w	r3, [sp, #14]
    13fe:	f423 5380 	bic.w	r3, r3, #4096	; 0x1000
    1402:	f8ad 300e 	strh.w	r3, [sp, #14]
      break;
    1406:	e089      	b.n	151c <BSP_PeripheralAccess+0x400>

    case BSP_RS232_LEUART:
      perfControl |= (1 << BC_PERICON_RS232_SHUTDOWN_SHIFT);
    1408:	f8bd 300e 	ldrh.w	r3, [sp, #14]
    140c:	f443 5300 	orr.w	r3, r3, #8192	; 0x2000
    1410:	f8ad 300e 	strh.w	r3, [sp, #14]
      perfControl &= ~(1 << BC_PERICON_RS232_LEUART_SHIFT);
    1414:	f8bd 300e 	ldrh.w	r3, [sp, #14]
    1418:	f423 6300 	bic.w	r3, r3, #2048	; 0x800
    141c:	f8ad 300e 	strh.w	r3, [sp, #14]
      break;
    1420:	e07c      	b.n	151c <BSP_PeripheralAccess+0x400>

    case BSP_I2C:
      perfControl &= ~(1 << BC_PERICON_I2C_SHIFT);
    1422:	f8bd 300e 	ldrh.w	r3, [sp, #14]
    1426:	f423 6380 	bic.w	r3, r3, #1024	; 0x400
    142a:	f8ad 300e 	strh.w	r3, [sp, #14]
      break;
    142e:	e075      	b.n	151c <BSP_PeripheralAccess+0x400>

    case BSP_ETH:
      /* Disable SPI interface */
      perfControl &= ~(1 << BC_PERICON_I2S_ETH_SHIFT);
    1430:	f8bd 300e 	ldrh.w	r3, [sp, #14]
    1434:	f423 7380 	bic.w	r3, r3, #256	; 0x100
    1438:	f8ad 300e 	strh.w	r3, [sp, #14]
      perfControl &= ~(1 << BC_PERICON_I2S_ETH_SEL_SHIFT);
    143c:	f8bd 300e 	ldrh.w	r3, [sp, #14]
    1440:	f423 7300 	bic.w	r3, r3, #512	; 0x200
    1444:	f8ad 300e 	strh.w	r3, [sp, #14]
      SpiControl(BSP_SPI_OFF);
    1448:	2003      	movs	r0, #3
    144a:	f000 fbc9 	bl	1be0 <SpiControl>
      break;
    144e:	e065      	b.n	151c <BSP_PeripheralAccess+0x400>

    case BSP_I2S:
      /* Disable SPI interface and audio out */
      perfControl &= ~(1 << BC_PERICON_AUDIO_OUT_SHIFT);
    1450:	f8bd 300e 	ldrh.w	r3, [sp, #14]
    1454:	f023 0308 	bic.w	r3, r3, #8
    1458:	f8ad 300e 	strh.w	r3, [sp, #14]
      perfControl &= ~(1 << BC_PERICON_AUDIO_OUT_SEL_SHIFT);
    145c:	f8bd 300e 	ldrh.w	r3, [sp, #14]
    1460:	f023 0310 	bic.w	r3, r3, #16
    1464:	f8ad 300e 	strh.w	r3, [sp, #14]
      perfControl &= ~(1 << BC_PERICON_I2S_ETH_SHIFT);
    1468:	f8bd 300e 	ldrh.w	r3, [sp, #14]
    146c:	f423 7380 	bic.w	r3, r3, #256	; 0x100
    1470:	f8ad 300e 	strh.w	r3, [sp, #14]
      perfControl &= ~(1 << BC_PERICON_I2S_ETH_SEL_SHIFT);
    1474:	f8bd 300e 	ldrh.w	r3, [sp, #14]
    1478:	f423 7300 	bic.w	r3, r3, #512	; 0x200
    147c:	f8ad 300e 	strh.w	r3, [sp, #14]
      SpiControl(BSP_SPI_OFF);
    1480:	2003      	movs	r0, #3
    1482:	f000 fbad 	bl	1be0 <SpiControl>
      break;
    1486:	e049      	b.n	151c <BSP_PeripheralAccess+0x400>

    case BSP_TRACE:
      #if defined(ETM_PRESENT)
        perfControl &= ~(1 << BC_PERICON_TRACE_SHIFT);
    1488:	f8bd 300e 	ldrh.w	r3, [sp, #14]
    148c:	f023 0380 	bic.w	r3, r3, #128	; 0x80
    1490:	f8ad 300e 	strh.w	r3, [sp, #14]
        break;
    1494:	e042      	b.n	151c <BSP_PeripheralAccess+0x400>
        /* TRACE is not available on EFM32G890F128, application error */
        while (1) ;
      #endif

    case BSP_TOUCH:
      perfControl &= ~(1 << BC_PERICON_TOUCH_SHIFT);
    1496:	f8bd 300e 	ldrh.w	r3, [sp, #14]
    149a:	f023 0340 	bic.w	r3, r3, #64	; 0x40
    149e:	f8ad 300e 	strh.w	r3, [sp, #14]
      break;
    14a2:	e03b      	b.n	151c <BSP_PeripheralAccess+0x400>

    case BSP_AUDIO_IN:
      perfControl &= ~(1 << BC_PERICON_AUDIO_IN_SHIFT);
    14a4:	f8bd 300e 	ldrh.w	r3, [sp, #14]
    14a8:	f023 0320 	bic.w	r3, r3, #32
    14ac:	f8ad 300e 	strh.w	r3, [sp, #14]
      break;
    14b0:	e034      	b.n	151c <BSP_PeripheralAccess+0x400>

    case BSP_AUDIO_OUT:
      perfControl &= ~(1 << BC_PERICON_AUDIO_OUT_SEL_SHIFT);
    14b2:	f8bd 300e 	ldrh.w	r3, [sp, #14]
    14b6:	f023 0310 	bic.w	r3, r3, #16
    14ba:	f8ad 300e 	strh.w	r3, [sp, #14]
      perfControl &= ~(1 << BC_PERICON_AUDIO_OUT_SHIFT);
    14be:	f8bd 300e 	ldrh.w	r3, [sp, #14]
    14c2:	f023 0308 	bic.w	r3, r3, #8
    14c6:	f8ad 300e 	strh.w	r3, [sp, #14]
      break;
    14ca:	e027      	b.n	151c <BSP_PeripheralAccess+0x400>

    case BSP_ANALOG_DIFF:
      perfControl &= ~(1 << BC_PERICON_ANALOG_DIFF_SHIFT);
    14cc:	f8bd 300e 	ldrh.w	r3, [sp, #14]
    14d0:	f023 0304 	bic.w	r3, r3, #4
    14d4:	f8ad 300e 	strh.w	r3, [sp, #14]
      break;
    14d8:	e020      	b.n	151c <BSP_PeripheralAccess+0x400>
    14da:	bf00      	nop
    14dc:	80000018 	.word	0x80000018

    case BSP_ANALOG_SE:
      perfControl &= ~(1 << BC_PERICON_ANALOG_SE_SHIFT);
    14e0:	f8bd 300e 	ldrh.w	r3, [sp, #14]
    14e4:	f023 0302 	bic.w	r3, r3, #2
    14e8:	f8ad 300e 	strh.w	r3, [sp, #14]
      break;
    14ec:	e016      	b.n	151c <BSP_PeripheralAccess+0x400>

    case BSP_MICROSD:
      perfControl &= ~(1 << BC_PERICON_SPI_SHIFT);
    14ee:	f8bd 300e 	ldrh.w	r3, [sp, #14]
    14f2:	f023 0301 	bic.w	r3, r3, #1
    14f6:	f8ad 300e 	strh.w	r3, [sp, #14]
      break;
    14fa:	e00f      	b.n	151c <BSP_PeripheralAccess+0x400>

    case BSP_TFT:
      /* Disable SPI interface */
      perfControl &= ~(1 << BC_PERICON_I2S_ETH_SHIFT);
    14fc:	f8bd 300e 	ldrh.w	r3, [sp, #14]
    1500:	f423 7380 	bic.w	r3, r3, #256	; 0x100
    1504:	f8ad 300e 	strh.w	r3, [sp, #14]
      perfControl &= ~(1 << BC_PERICON_I2S_ETH_SEL_SHIFT);
    1508:	f8bd 300e 	ldrh.w	r3, [sp, #14]
    150c:	f423 7300 	bic.w	r3, r3, #512	; 0x200
    1510:	f8ad 300e 	strh.w	r3, [sp, #14]
      SpiControl(BSP_SPI_OFF);
    1514:	2003      	movs	r0, #3
    1516:	f000 fb63 	bl	1be0 <SpiControl>
      break;
    151a:	bf00      	nop
    }
  }
  /* Write back register */
  BSP_RegisterWrite(&BC_REGISTER->PERICON, perfControl);
    151c:	f8bd 300e 	ldrh.w	r3, [sp, #14]
    1520:	4619      	mov	r1, r3
    1522:	4804      	ldr	r0, [pc, #16]	; (1534 <BSP_PeripheralAccess+0x418>)
    1524:	f000 f81e 	bl	1564 <BSP_RegisterWrite>

  return BSP_STATUS_OK;
    1528:	2300      	movs	r3, #0
}
    152a:	4618      	mov	r0, r3
    152c:	b005      	add	sp, #20
    152e:	f85d fb04 	ldr.w	pc, [sp], #4
    1532:	bf00      	nop
    1534:	80000018 	.word	0x80000018

00001538 <BSP_RegisterRead>:
 * @brief Read from a board controller register.
 * @param[in] addr The board controller register address.
 * @return The value read.
 *****************************************************************************/
uint16_t BSP_RegisterRead(volatile uint16_t *addr)
{
    1538:	b500      	push	{lr}
    153a:	b083      	sub	sp, #12
    153c:	9001      	str	r0, [sp, #4]
  if (bspOperationMode == BSP_INIT_DK_EBI)
    153e:	4b08      	ldr	r3, [pc, #32]	; (1560 <BSP_RegisterRead+0x28>)
    1540:	681b      	ldr	r3, [r3, #0]
    1542:	2b02      	cmp	r3, #2
    1544:	d103      	bne.n	154e <BSP_RegisterRead+0x16>
  {
    return *addr;
    1546:	9b01      	ldr	r3, [sp, #4]
    1548:	881b      	ldrh	r3, [r3, #0]
    154a:	b29b      	uxth	r3, r3
    154c:	e003      	b.n	1556 <BSP_RegisterRead+0x1e>
  }
  else
  {
    return SpiRegisterRead(addr);
    154e:	9801      	ldr	r0, [sp, #4]
    1550:	f000 fba2 	bl	1c98 <SpiRegisterRead>
    1554:	4603      	mov	r3, r0
  }
}
    1556:	4618      	mov	r0, r3
    1558:	b003      	add	sp, #12
    155a:	f85d fb04 	ldr.w	pc, [sp], #4
    155e:	bf00      	nop
    1560:	20000784 	.word	0x20000784

00001564 <BSP_RegisterWrite>:
 * @brief Write to a board controller register.
 * @param[in] addr The Board controller register address.
 * @param[in] data The value to write.
 *****************************************************************************/
int BSP_RegisterWrite(volatile uint16_t *addr, uint16_t data)
{
    1564:	b500      	push	{lr}
    1566:	b083      	sub	sp, #12
    1568:	9001      	str	r0, [sp, #4]
    156a:	460b      	mov	r3, r1
    156c:	f8ad 3002 	strh.w	r3, [sp, #2]
  if (bspOperationMode == BSP_INIT_DK_EBI)
    1570:	4b09      	ldr	r3, [pc, #36]	; (1598 <BSP_RegisterWrite+0x34>)
    1572:	681b      	ldr	r3, [r3, #0]
    1574:	2b02      	cmp	r3, #2
    1576:	d104      	bne.n	1582 <BSP_RegisterWrite+0x1e>
  {
    *addr = data;
    1578:	9b01      	ldr	r3, [sp, #4]
    157a:	f8bd 2002 	ldrh.w	r2, [sp, #2]
    157e:	801a      	strh	r2, [r3, #0]
    1580:	e005      	b.n	158e <BSP_RegisterWrite+0x2a>
  }
  else
  {
    SpiRegisterWrite(addr, data);
    1582:	f8bd 3002 	ldrh.w	r3, [sp, #2]
    1586:	4619      	mov	r1, r3
    1588:	9801      	ldr	r0, [sp, #4]
    158a:	f000 fbc5 	bl	1d18 <SpiRegisterWrite>
  }
  return BSP_STATUS_OK;
    158e:	2300      	movs	r3, #0
}
    1590:	4618      	mov	r0, r3
    1592:	b003      	add	sp, #12
    1594:	f85d fb04 	ldr.w	pc, [sp], #4
    1598:	20000784 	.word	0x20000784

0000159c <EbiDisable>:
/** @} (end group BSP) */

/** @cond DO_NOT_INCLUDE_WITH_DOXYGEN */

static void EbiDisable(void)
{
    159c:	b508      	push	{r3, lr}

#else

  /* Configure GPIO pins as disabled */
  /* EBI AD9..15 */
  GPIO_PinModeSet( gpioPortA,  0, gpioModeDisabled, 0 );
    159e:	2300      	movs	r3, #0
    15a0:	2200      	movs	r2, #0
    15a2:	2100      	movs	r1, #0
    15a4:	2000      	movs	r0, #0
    15a6:	f001 ffcd 	bl	3544 <GPIO_PinModeSet>
  GPIO_PinModeSet( gpioPortA,  1, gpioModeDisabled, 0 );
    15aa:	2300      	movs	r3, #0
    15ac:	2200      	movs	r2, #0
    15ae:	2101      	movs	r1, #1
    15b0:	2000      	movs	r0, #0
    15b2:	f001 ffc7 	bl	3544 <GPIO_PinModeSet>
  GPIO_PinModeSet( gpioPortA,  2, gpioModeDisabled, 0 );
    15b6:	2300      	movs	r3, #0
    15b8:	2200      	movs	r2, #0
    15ba:	2102      	movs	r1, #2
    15bc:	2000      	movs	r0, #0
    15be:	f001 ffc1 	bl	3544 <GPIO_PinModeSet>
  GPIO_PinModeSet( gpioPortA,  3, gpioModeDisabled, 0 );
    15c2:	2300      	movs	r3, #0
    15c4:	2200      	movs	r2, #0
    15c6:	2103      	movs	r1, #3
    15c8:	2000      	movs	r0, #0
    15ca:	f001 ffbb 	bl	3544 <GPIO_PinModeSet>
  GPIO_PinModeSet( gpioPortA,  4, gpioModeDisabled, 0 );
    15ce:	2300      	movs	r3, #0
    15d0:	2200      	movs	r2, #0
    15d2:	2104      	movs	r1, #4
    15d4:	2000      	movs	r0, #0
    15d6:	f001 ffb5 	bl	3544 <GPIO_PinModeSet>
  GPIO_PinModeSet( gpioPortA,  5, gpioModeDisabled, 0 );
    15da:	2300      	movs	r3, #0
    15dc:	2200      	movs	r2, #0
    15de:	2105      	movs	r1, #5
    15e0:	2000      	movs	r0, #0
    15e2:	f001 ffaf 	bl	3544 <GPIO_PinModeSet>
  GPIO_PinModeSet( gpioPortA,  6, gpioModeDisabled, 0 );
    15e6:	2300      	movs	r3, #0
    15e8:	2200      	movs	r2, #0
    15ea:	2106      	movs	r1, #6
    15ec:	2000      	movs	r0, #0
    15ee:	f001 ffa9 	bl	3544 <GPIO_PinModeSet>

  /* EBI AD8 */
  GPIO_PinModeSet( gpioPortA, 15, gpioModeDisabled, 0 );
    15f2:	2300      	movs	r3, #0
    15f4:	2200      	movs	r2, #0
    15f6:	210f      	movs	r1, #15
    15f8:	2000      	movs	r0, #0
    15fa:	f001 ffa3 	bl	3544 <GPIO_PinModeSet>

  /* EBI A16-A22 */
  GPIO_PinModeSet( gpioPortB,  0, gpioModeDisabled, 0 );
    15fe:	2300      	movs	r3, #0
    1600:	2200      	movs	r2, #0
    1602:	2100      	movs	r1, #0
    1604:	2001      	movs	r0, #1
    1606:	f001 ff9d 	bl	3544 <GPIO_PinModeSet>
  GPIO_PinModeSet( gpioPortB,  1, gpioModeDisabled, 0 );
    160a:	2300      	movs	r3, #0
    160c:	2200      	movs	r2, #0
    160e:	2101      	movs	r1, #1
    1610:	2001      	movs	r0, #1
    1612:	f001 ff97 	bl	3544 <GPIO_PinModeSet>
  GPIO_PinModeSet( gpioPortB,  2, gpioModeDisabled, 0 );
    1616:	2300      	movs	r3, #0
    1618:	2200      	movs	r2, #0
    161a:	2102      	movs	r1, #2
    161c:	2001      	movs	r0, #1
    161e:	f001 ff91 	bl	3544 <GPIO_PinModeSet>
  GPIO_PinModeSet( gpioPortB,  3, gpioModeDisabled, 0 );
    1622:	2300      	movs	r3, #0
    1624:	2200      	movs	r2, #0
    1626:	2103      	movs	r1, #3
    1628:	2001      	movs	r0, #1
    162a:	f001 ff8b 	bl	3544 <GPIO_PinModeSet>
  GPIO_PinModeSet( gpioPortB,  4, gpioModeDisabled, 0 );
    162e:	2300      	movs	r3, #0
    1630:	2200      	movs	r2, #0
    1632:	2104      	movs	r1, #4
    1634:	2001      	movs	r0, #1
    1636:	f001 ff85 	bl	3544 <GPIO_PinModeSet>
  GPIO_PinModeSet( gpioPortB,  5, gpioModeDisabled, 0 );
    163a:	2300      	movs	r3, #0
    163c:	2200      	movs	r2, #0
    163e:	2105      	movs	r1, #5
    1640:	2001      	movs	r0, #1
    1642:	f001 ff7f 	bl	3544 <GPIO_PinModeSet>
  GPIO_PinModeSet( gpioPortB,  6, gpioModeDisabled, 0 );
    1646:	2300      	movs	r3, #0
    1648:	2200      	movs	r2, #0
    164a:	2106      	movs	r1, #6
    164c:	2001      	movs	r0, #1
    164e:	f001 ff79 	bl	3544 <GPIO_PinModeSet>

  /* EBI CS0-CS3 */
  GPIO_PinModeSet( gpioPortD,  9, gpioModeDisabled, 0 );
    1652:	2300      	movs	r3, #0
    1654:	2200      	movs	r2, #0
    1656:	2109      	movs	r1, #9
    1658:	2003      	movs	r0, #3
    165a:	f001 ff73 	bl	3544 <GPIO_PinModeSet>
  GPIO_PinModeSet( gpioPortD, 10, gpioModeDisabled, 0 );
    165e:	2300      	movs	r3, #0
    1660:	2200      	movs	r2, #0
    1662:	210a      	movs	r1, #10
    1664:	2003      	movs	r0, #3
    1666:	f001 ff6d 	bl	3544 <GPIO_PinModeSet>
  GPIO_PinModeSet( gpioPortD, 11, gpioModeDisabled, 0 );
    166a:	2300      	movs	r3, #0
    166c:	2200      	movs	r2, #0
    166e:	210b      	movs	r1, #11
    1670:	2003      	movs	r0, #3
    1672:	f001 ff67 	bl	3544 <GPIO_PinModeSet>
  GPIO_PinModeSet( gpioPortD, 12, gpioModeDisabled, 0 );
    1676:	2300      	movs	r3, #0
    1678:	2200      	movs	r2, #0
    167a:	210c      	movs	r1, #12
    167c:	2003      	movs	r0, #3
    167e:	f001 ff61 	bl	3544 <GPIO_PinModeSet>

  /* EBI AD0..7 */
  GPIO_PinModeSet( gpioPortE,  8, gpioModeDisabled, 0 );
    1682:	2300      	movs	r3, #0
    1684:	2200      	movs	r2, #0
    1686:	2108      	movs	r1, #8
    1688:	2004      	movs	r0, #4
    168a:	f001 ff5b 	bl	3544 <GPIO_PinModeSet>
  GPIO_PinModeSet( gpioPortE,  9, gpioModeDisabled, 0 );
    168e:	2300      	movs	r3, #0
    1690:	2200      	movs	r2, #0
    1692:	2109      	movs	r1, #9
    1694:	2004      	movs	r0, #4
    1696:	f001 ff55 	bl	3544 <GPIO_PinModeSet>
  GPIO_PinModeSet( gpioPortE, 10, gpioModeDisabled, 0 );
    169a:	2300      	movs	r3, #0
    169c:	2200      	movs	r2, #0
    169e:	210a      	movs	r1, #10
    16a0:	2004      	movs	r0, #4
    16a2:	f001 ff4f 	bl	3544 <GPIO_PinModeSet>
  GPIO_PinModeSet( gpioPortE, 11, gpioModeDisabled, 0 );
    16a6:	2300      	movs	r3, #0
    16a8:	2200      	movs	r2, #0
    16aa:	210b      	movs	r1, #11
    16ac:	2004      	movs	r0, #4
    16ae:	f001 ff49 	bl	3544 <GPIO_PinModeSet>
  GPIO_PinModeSet( gpioPortE, 12, gpioModeDisabled, 0 );
    16b2:	2300      	movs	r3, #0
    16b4:	2200      	movs	r2, #0
    16b6:	210c      	movs	r1, #12
    16b8:	2004      	movs	r0, #4
    16ba:	f001 ff43 	bl	3544 <GPIO_PinModeSet>
  GPIO_PinModeSet( gpioPortE, 13, gpioModeDisabled, 0 );
    16be:	2300      	movs	r3, #0
    16c0:	2200      	movs	r2, #0
    16c2:	210d      	movs	r1, #13
    16c4:	2004      	movs	r0, #4
    16c6:	f001 ff3d 	bl	3544 <GPIO_PinModeSet>
  GPIO_PinModeSet( gpioPortE, 14, gpioModeDisabled, 0 );
    16ca:	2300      	movs	r3, #0
    16cc:	2200      	movs	r2, #0
    16ce:	210e      	movs	r1, #14
    16d0:	2004      	movs	r0, #4
    16d2:	f001 ff37 	bl	3544 <GPIO_PinModeSet>
  GPIO_PinModeSet( gpioPortE, 15, gpioModeDisabled, 0 );
    16d6:	2300      	movs	r3, #0
    16d8:	2200      	movs	r2, #0
    16da:	210f      	movs	r1, #15
    16dc:	2004      	movs	r0, #4
    16de:	f001 ff31 	bl	3544 <GPIO_PinModeSet>

  /* EBI ARDY/WEN/REN/ALE */
  GPIO_PinModeSet( gpioPortF,  2, gpioModeDisabled, 0 );
    16e2:	2300      	movs	r3, #0
    16e4:	2200      	movs	r2, #0
    16e6:	2102      	movs	r1, #2
    16e8:	2005      	movs	r0, #5
    16ea:	f001 ff2b 	bl	3544 <GPIO_PinModeSet>
  GPIO_PinModeSet( gpioPortF,  8, gpioModeDisabled, 0 );
    16ee:	2300      	movs	r3, #0
    16f0:	2200      	movs	r2, #0
    16f2:	2108      	movs	r1, #8
    16f4:	2005      	movs	r0, #5
    16f6:	f001 ff25 	bl	3544 <GPIO_PinModeSet>
  GPIO_PinModeSet( gpioPortF,  9, gpioModeDisabled, 0 );
    16fa:	2300      	movs	r3, #0
    16fc:	2200      	movs	r2, #0
    16fe:	2109      	movs	r1, #9
    1700:	2005      	movs	r0, #5
    1702:	f001 ff1f 	bl	3544 <GPIO_PinModeSet>
  GPIO_PinModeSet( gpioPortC, 11, gpioModeDisabled, 0 );
    1706:	2300      	movs	r3, #0
    1708:	2200      	movs	r2, #0
    170a:	210b      	movs	r1, #11
    170c:	2002      	movs	r0, #2
    170e:	f001 ff19 	bl	3544 <GPIO_PinModeSet>

  /* EBI Byte Lane 0 support BL0/BL1 */
  GPIO_PinModeSet( gpioPortF,  6, gpioModeDisabled, 0 );
    1712:	2300      	movs	r3, #0
    1714:	2200      	movs	r2, #0
    1716:	2106      	movs	r1, #6
    1718:	2005      	movs	r0, #5
    171a:	f001 ff13 	bl	3544 <GPIO_PinModeSet>
  GPIO_PinModeSet( gpioPortF,  7, gpioModeDisabled, 0 );
    171e:	2300      	movs	r3, #0
    1720:	2200      	movs	r2, #0
    1722:	2107      	movs	r1, #7
    1724:	2005      	movs	r0, #5
    1726:	f001 ff0d 	bl	3544 <GPIO_PinModeSet>

#endif

  /* Reset EBI configuration */
  EBI_Disable();
    172a:	f001 fb9d 	bl	2e68 <EBI_Disable>

  /* Turn off EBI clock */
  CMU_ClockEnable(cmuClock_EBI, false);
    172e:	2100      	movs	r1, #0
    1730:	4802      	ldr	r0, [pc, #8]	; (173c <EbiDisable+0x1a0>)
    1732:	f000 ffb9 	bl	26a8 <CMU_ClockEnable>
}
    1736:	bf00      	nop
    1738:	bd08      	pop	{r3, pc}
    173a:	bf00      	nop
    173c:	00025300 	.word	0x00025300

00001740 <EbiInit>:
 *    - 0x88000000: PSRAM external memory (Micron MT45W2MW16PGA-70 IT)
 *    - 0x8c000000: NOR flash (Spansion flash S29GLxxx_FBGA)
 * @return true if successful, false if board controller access failed
 *****************************************************************************/
static bool EbiInit(void)
{
    1740:	b500      	push	{lr}
    1742:	b095      	sub	sp, #84	; 0x54
  EBI_Init_TypeDef ebiConfig = EBI_INIT_DEFAULT;
    1744:	466b      	mov	r3, sp
    1746:	2250      	movs	r2, #80	; 0x50
    1748:	2100      	movs	r1, #0
    174a:	4618      	mov	r0, r3
    174c:	f002 ffde 	bl	470c <memset>
    1750:	2302      	movs	r3, #2
    1752:	9303      	str	r3, [sp, #12]
    1754:	2302      	movs	r3, #2
    1756:	9304      	str	r3, [sp, #16]
    1758:	2301      	movs	r3, #1
    175a:	9306      	str	r3, [sp, #24]
    175c:	2301      	movs	r3, #1
    175e:	930e      	str	r3, [sp, #56]	; 0x38
    1760:	2301      	movs	r3, #1
    1762:	f88d 304c 	strb.w	r3, [sp, #76]	; 0x4c

  /* Enable clocks */
  CMU_ClockEnable(cmuClock_EBI, true);
    1766:	2101      	movs	r1, #1
    1768:	48c0      	ldr	r0, [pc, #768]	; (1a6c <EbiInit+0x32c>)
    176a:	f000 ff9d 	bl	26a8 <CMU_ClockEnable>
  CMU_ClockEnable(cmuClock_GPIO, true);
    176e:	2101      	movs	r1, #1
    1770:	48bf      	ldr	r0, [pc, #764]	; (1a70 <EbiInit+0x330>)
    1772:	f000 ff99 	bl	26a8 <CMU_ClockEnable>

  /* Giant or Leopard family. */

  /* Configure GPIO pins as push pull */
  /* EBI AD9..15 */
  GPIO_PinModeSet( gpioPortA,  0, gpioModePushPull, 0 );
    1776:	2300      	movs	r3, #0
    1778:	2204      	movs	r2, #4
    177a:	2100      	movs	r1, #0
    177c:	2000      	movs	r0, #0
    177e:	f001 fee1 	bl	3544 <GPIO_PinModeSet>
  GPIO_PinModeSet( gpioPortA,  1, gpioModePushPull, 0 );
    1782:	2300      	movs	r3, #0
    1784:	2204      	movs	r2, #4
    1786:	2101      	movs	r1, #1
    1788:	2000      	movs	r0, #0
    178a:	f001 fedb 	bl	3544 <GPIO_PinModeSet>
  GPIO_PinModeSet( gpioPortA,  2, gpioModePushPull, 0 );
    178e:	2300      	movs	r3, #0
    1790:	2204      	movs	r2, #4
    1792:	2102      	movs	r1, #2
    1794:	2000      	movs	r0, #0
    1796:	f001 fed5 	bl	3544 <GPIO_PinModeSet>
  GPIO_PinModeSet( gpioPortA,  3, gpioModePushPull, 0 );
    179a:	2300      	movs	r3, #0
    179c:	2204      	movs	r2, #4
    179e:	2103      	movs	r1, #3
    17a0:	2000      	movs	r0, #0
    17a2:	f001 fecf 	bl	3544 <GPIO_PinModeSet>
  GPIO_PinModeSet( gpioPortA,  4, gpioModePushPull, 0 );
    17a6:	2300      	movs	r3, #0
    17a8:	2204      	movs	r2, #4
    17aa:	2104      	movs	r1, #4
    17ac:	2000      	movs	r0, #0
    17ae:	f001 fec9 	bl	3544 <GPIO_PinModeSet>
  GPIO_PinModeSet( gpioPortA,  5, gpioModePushPull, 0 );
    17b2:	2300      	movs	r3, #0
    17b4:	2204      	movs	r2, #4
    17b6:	2105      	movs	r1, #5
    17b8:	2000      	movs	r0, #0
    17ba:	f001 fec3 	bl	3544 <GPIO_PinModeSet>
  GPIO_PinModeSet( gpioPortA,  6, gpioModePushPull, 0 );
    17be:	2300      	movs	r3, #0
    17c0:	2204      	movs	r2, #4
    17c2:	2106      	movs	r1, #6
    17c4:	2000      	movs	r0, #0
    17c6:	f001 febd 	bl	3544 <GPIO_PinModeSet>

  /* EBI AD8 */
  GPIO_PinModeSet( gpioPortA, 15, gpioModePushPull, 0 );
    17ca:	2300      	movs	r3, #0
    17cc:	2204      	movs	r2, #4
    17ce:	210f      	movs	r1, #15
    17d0:	2000      	movs	r0, #0
    17d2:	f001 feb7 	bl	3544 <GPIO_PinModeSet>

  /* EBI A16-A22 */
  GPIO_PinModeSet( gpioPortB,  0, gpioModePushPull, 0 );
    17d6:	2300      	movs	r3, #0
    17d8:	2204      	movs	r2, #4
    17da:	2100      	movs	r1, #0
    17dc:	2001      	movs	r0, #1
    17de:	f001 feb1 	bl	3544 <GPIO_PinModeSet>
  GPIO_PinModeSet( gpioPortB,  1, gpioModePushPull, 0 );
    17e2:	2300      	movs	r3, #0
    17e4:	2204      	movs	r2, #4
    17e6:	2101      	movs	r1, #1
    17e8:	2001      	movs	r0, #1
    17ea:	f001 feab 	bl	3544 <GPIO_PinModeSet>
  GPIO_PinModeSet( gpioPortB,  2, gpioModePushPull, 0 );
    17ee:	2300      	movs	r3, #0
    17f0:	2204      	movs	r2, #4
    17f2:	2102      	movs	r1, #2
    17f4:	2001      	movs	r0, #1
    17f6:	f001 fea5 	bl	3544 <GPIO_PinModeSet>
  GPIO_PinModeSet( gpioPortB,  3, gpioModePushPull, 0 );
    17fa:	2300      	movs	r3, #0
    17fc:	2204      	movs	r2, #4
    17fe:	2103      	movs	r1, #3
    1800:	2001      	movs	r0, #1
    1802:	f001 fe9f 	bl	3544 <GPIO_PinModeSet>
  GPIO_PinModeSet( gpioPortB,  4, gpioModePushPull, 0 );
    1806:	2300      	movs	r3, #0
    1808:	2204      	movs	r2, #4
    180a:	2104      	movs	r1, #4
    180c:	2001      	movs	r0, #1
    180e:	f001 fe99 	bl	3544 <GPIO_PinModeSet>
  GPIO_PinModeSet( gpioPortB,  5, gpioModePushPull, 0 );
    1812:	2300      	movs	r3, #0
    1814:	2204      	movs	r2, #4
    1816:	2105      	movs	r1, #5
    1818:	2001      	movs	r0, #1
    181a:	f001 fe93 	bl	3544 <GPIO_PinModeSet>
  GPIO_PinModeSet( gpioPortB,  6, gpioModePushPull, 0 );
    181e:	2300      	movs	r3, #0
    1820:	2204      	movs	r2, #4
    1822:	2106      	movs	r1, #6
    1824:	2001      	movs	r0, #1
    1826:	f001 fe8d 	bl	3544 <GPIO_PinModeSet>

  /* EBI CS0-CS3 */
  GPIO_PinModeSet( gpioPortD,  9, gpioModePushPull, 1 );
    182a:	2301      	movs	r3, #1
    182c:	2204      	movs	r2, #4
    182e:	2109      	movs	r1, #9
    1830:	2003      	movs	r0, #3
    1832:	f001 fe87 	bl	3544 <GPIO_PinModeSet>
  GPIO_PinModeSet( gpioPortD, 10, gpioModePushPull, 1 );
    1836:	2301      	movs	r3, #1
    1838:	2204      	movs	r2, #4
    183a:	210a      	movs	r1, #10
    183c:	2003      	movs	r0, #3
    183e:	f001 fe81 	bl	3544 <GPIO_PinModeSet>
  GPIO_PinModeSet( gpioPortD, 11, gpioModePushPull, 1 );
    1842:	2301      	movs	r3, #1
    1844:	2204      	movs	r2, #4
    1846:	210b      	movs	r1, #11
    1848:	2003      	movs	r0, #3
    184a:	f001 fe7b 	bl	3544 <GPIO_PinModeSet>
  GPIO_PinModeSet( gpioPortD, 12, gpioModePushPull, 1 );
    184e:	2301      	movs	r3, #1
    1850:	2204      	movs	r2, #4
    1852:	210c      	movs	r1, #12
    1854:	2003      	movs	r0, #3
    1856:	f001 fe75 	bl	3544 <GPIO_PinModeSet>

  /* EBI AD0..7 */
  GPIO_PinModeSet( gpioPortE,  8, gpioModePushPull, 0 );
    185a:	2300      	movs	r3, #0
    185c:	2204      	movs	r2, #4
    185e:	2108      	movs	r1, #8
    1860:	2004      	movs	r0, #4
    1862:	f001 fe6f 	bl	3544 <GPIO_PinModeSet>
  GPIO_PinModeSet( gpioPortE,  9, gpioModePushPull, 0 );
    1866:	2300      	movs	r3, #0
    1868:	2204      	movs	r2, #4
    186a:	2109      	movs	r1, #9
    186c:	2004      	movs	r0, #4
    186e:	f001 fe69 	bl	3544 <GPIO_PinModeSet>
  GPIO_PinModeSet( gpioPortE, 10, gpioModePushPull, 0 );
    1872:	2300      	movs	r3, #0
    1874:	2204      	movs	r2, #4
    1876:	210a      	movs	r1, #10
    1878:	2004      	movs	r0, #4
    187a:	f001 fe63 	bl	3544 <GPIO_PinModeSet>
  GPIO_PinModeSet( gpioPortE, 11, gpioModePushPull, 0 );
    187e:	2300      	movs	r3, #0
    1880:	2204      	movs	r2, #4
    1882:	210b      	movs	r1, #11
    1884:	2004      	movs	r0, #4
    1886:	f001 fe5d 	bl	3544 <GPIO_PinModeSet>
  GPIO_PinModeSet( gpioPortE, 12, gpioModePushPull, 0 );
    188a:	2300      	movs	r3, #0
    188c:	2204      	movs	r2, #4
    188e:	210c      	movs	r1, #12
    1890:	2004      	movs	r0, #4
    1892:	f001 fe57 	bl	3544 <GPIO_PinModeSet>
  GPIO_PinModeSet( gpioPortE, 13, gpioModePushPull, 0 );
    1896:	2300      	movs	r3, #0
    1898:	2204      	movs	r2, #4
    189a:	210d      	movs	r1, #13
    189c:	2004      	movs	r0, #4
    189e:	f001 fe51 	bl	3544 <GPIO_PinModeSet>
  GPIO_PinModeSet( gpioPortE, 14, gpioModePushPull, 0 );
    18a2:	2300      	movs	r3, #0
    18a4:	2204      	movs	r2, #4
    18a6:	210e      	movs	r1, #14
    18a8:	2004      	movs	r0, #4
    18aa:	f001 fe4b 	bl	3544 <GPIO_PinModeSet>
  GPIO_PinModeSet( gpioPortE, 15, gpioModePushPull, 0 );
    18ae:	2300      	movs	r3, #0
    18b0:	2204      	movs	r2, #4
    18b2:	210f      	movs	r1, #15
    18b4:	2004      	movs	r0, #4
    18b6:	f001 fe45 	bl	3544 <GPIO_PinModeSet>

  /* EBI ARDY/WEN/REN/ALE */
  GPIO_PinModeSet( gpioPortF,  2, gpioModeInput,    0 );
    18ba:	2300      	movs	r3, #0
    18bc:	2201      	movs	r2, #1
    18be:	2102      	movs	r1, #2
    18c0:	2005      	movs	r0, #5
    18c2:	f001 fe3f 	bl	3544 <GPIO_PinModeSet>
  GPIO_PinModeSet( gpioPortF,  8, gpioModePushPull, 0 );
    18c6:	2300      	movs	r3, #0
    18c8:	2204      	movs	r2, #4
    18ca:	2108      	movs	r1, #8
    18cc:	2005      	movs	r0, #5
    18ce:	f001 fe39 	bl	3544 <GPIO_PinModeSet>
  GPIO_PinModeSet( gpioPortF,  9, gpioModePushPull, 0 );
    18d2:	2300      	movs	r3, #0
    18d4:	2204      	movs	r2, #4
    18d6:	2109      	movs	r1, #9
    18d8:	2005      	movs	r0, #5
    18da:	f001 fe33 	bl	3544 <GPIO_PinModeSet>
  GPIO_PinModeSet( gpioPortC, 11, gpioModePushPull, 0 );
    18de:	2300      	movs	r3, #0
    18e0:	2204      	movs	r2, #4
    18e2:	210b      	movs	r1, #11
    18e4:	2002      	movs	r0, #2
    18e6:	f001 fe2d 	bl	3544 <GPIO_PinModeSet>

  /* EBI Byte Lane 0 support BL0/BL1 */
  GPIO_PinModeSet( gpioPortF, 6, gpioModePushPull, 0 );
    18ea:	2300      	movs	r3, #0
    18ec:	2204      	movs	r2, #4
    18ee:	2106      	movs	r1, #6
    18f0:	2005      	movs	r0, #5
    18f2:	f001 fe27 	bl	3544 <GPIO_PinModeSet>
  GPIO_PinModeSet( gpioPortF, 7, gpioModePushPull, 0 );
    18f6:	2300      	movs	r3, #0
    18f8:	2204      	movs	r2, #4
    18fa:	2107      	movs	r1, #7
    18fc:	2005      	movs	r0, #5
    18fe:	f001 fe21 	bl	3544 <GPIO_PinModeSet>

  /* ---------------------------------------------------- */
  /* External 4MB PSRAM, Bank 2, Base Address 0x88000000  */
  /* Micron MT45W2MW16PGA-70 IT, 32Mb Cellular RAM        */
  /* ---------------------------------------------------- */
  ebiConfig.banks        = EBI_BANK2;
    1902:	2308      	movs	r3, #8
    1904:	9303      	str	r3, [sp, #12]
  ebiConfig.csLines      = EBI_CS2;
    1906:	2308      	movs	r3, #8
    1908:	9304      	str	r3, [sp, #16]
  ebiConfig.mode         = ebiModeD16A16ALE;
    190a:	2301      	movs	r3, #1
    190c:	f88d 3000 	strb.w	r3, [sp]
  ebiConfig.alePolarity  = ebiActiveHigh;
    1910:	2301      	movs	r3, #1
    1912:	f88d 3002 	strb.w	r3, [sp, #2]
  ebiConfig.blEnable     = true;
    1916:	2301      	movs	r3, #1
    1918:	f88d 3007 	strb.w	r3, [sp, #7]
  ebiConfig.noIdle       = true;
    191c:	2301      	movs	r3, #1
    191e:	f88d 3008 	strb.w	r3, [sp, #8]
  ebiConfig.ardyEnable   = false;
    1922:	2300      	movs	r3, #0
    1924:	f88d 3009 	strb.w	r3, [sp, #9]
  ebiConfig.addrHalfALE  = true;
    1928:	2301      	movs	r3, #1
    192a:	f88d 301c 	strb.w	r3, [sp, #28]
  ebiConfig.readPrefetch = true;
    192e:	2301      	movs	r3, #1
    1930:	f88d 302d 	strb.w	r3, [sp, #45]	; 0x2d
  ebiConfig.aLow         = ebiALowA16;
    1934:	f44f 3300 	mov.w	r3, #131072	; 0x20000
    1938:	9310      	str	r3, [sp, #64]	; 0x40
  ebiConfig.aHigh        = ebiAHighA23;
    193a:	f44f 03b8 	mov.w	r3, #6029312	; 0x5c0000
    193e:	9311      	str	r3, [sp, #68]	; 0x44
  ebiConfig.location     = ebiLocation1;
    1940:	f04f 5380 	mov.w	r3, #268435456	; 0x10000000
    1944:	9312      	str	r3, [sp, #72]	; 0x48

  /* Address Setup and hold time */
  ebiConfig.addrHoldCycles  = 0;
    1946:	2300      	movs	r3, #0
    1948:	9306      	str	r3, [sp, #24]
  ebiConfig.addrSetupCycles = 0;
    194a:	2300      	movs	r3, #0
    194c:	9305      	str	r3, [sp, #20]

  /* Read cycle times */
  ebiConfig.readStrobeCycles = 4;
    194e:	2304      	movs	r3, #4
    1950:	9309      	str	r3, [sp, #36]	; 0x24
  ebiConfig.readHoldCycles   = 0;
    1952:	2300      	movs	r3, #0
    1954:	930a      	str	r3, [sp, #40]	; 0x28
  ebiConfig.readSetupCycles  = 0;
    1956:	2300      	movs	r3, #0
    1958:	9308      	str	r3, [sp, #32]

  /* Write cycle times */
  ebiConfig.writeStrobeCycles = 2;
    195a:	2302      	movs	r3, #2
    195c:	930d      	str	r3, [sp, #52]	; 0x34
  ebiConfig.writeHoldCycles   = 0;
    195e:	2300      	movs	r3, #0
    1960:	930e      	str	r3, [sp, #56]	; 0x38
  ebiConfig.writeSetupCycles  = 0;
    1962:	2300      	movs	r3, #0
    1964:	930c      	str	r3, [sp, #48]	; 0x30

  /* Configure EBI bank 2 - external PSRAM */
  EBI_Init(&ebiConfig);
    1966:	466b      	mov	r3, sp
    1968:	4618      	mov	r0, r3
    196a:	f001 f8d1 	bl	2b10 <EBI_Init>

  /* --------------------------------------------------------- */
  /* Board Control Registers, Bank 0, Base Address 0x80000000  */
  /* FPGA Xilinx Spartan XC6SLX9 CSG324                        */
  /* --------------------------------------------------------- */
  ebiConfig.banks       = EBI_BANK0;
    196e:	2302      	movs	r3, #2
    1970:	9303      	str	r3, [sp, #12]
  ebiConfig.csLines     = EBI_CS0;
    1972:	2302      	movs	r3, #2
    1974:	9304      	str	r3, [sp, #16]
  ebiConfig.mode        = ebiModeD16A16ALE;;
    1976:	2301      	movs	r3, #1
    1978:	f88d 3000 	strb.w	r3, [sp]
  ebiConfig.alePolarity = ebiActiveHigh;
    197c:	2301      	movs	r3, #1
    197e:	f88d 3002 	strb.w	r3, [sp, #2]
  /* keep blEnable */
  ebiConfig.blEnable     = false;
    1982:	2300      	movs	r3, #0
    1984:	f88d 3007 	strb.w	r3, [sp, #7]
  ebiConfig.addrHalfALE  = true;
    1988:	2301      	movs	r3, #1
    198a:	f88d 301c 	strb.w	r3, [sp, #28]
  ebiConfig.readPrefetch = false;
    198e:	2300      	movs	r3, #0
    1990:	f88d 302d 	strb.w	r3, [sp, #45]	; 0x2d
  ebiConfig.noIdle       = true;
    1994:	2301      	movs	r3, #1
    1996:	f88d 3008 	strb.w	r3, [sp, #8]
  /* keep alow/ahigh configuration */
  /* ebiConfig.aLow = ebiALowA0; - needs to be set for PSRAM */
  /* ebiConfig.aHigh = ebiAHighA0; - needs to be set for PSRAM */

  /* Address Setup and hold time */
  ebiConfig.addrHoldCycles  = 3;
    199a:	2303      	movs	r3, #3
    199c:	9306      	str	r3, [sp, #24]
  ebiConfig.addrSetupCycles = 3;
    199e:	2303      	movs	r3, #3
    19a0:	9305      	str	r3, [sp, #20]

  /* Read cycle times */
  ebiConfig.readStrobeCycles = 7;
    19a2:	2307      	movs	r3, #7
    19a4:	9309      	str	r3, [sp, #36]	; 0x24
  ebiConfig.readHoldCycles   = 3;
    19a6:	2303      	movs	r3, #3
    19a8:	930a      	str	r3, [sp, #40]	; 0x28
  ebiConfig.readSetupCycles  = 3;
    19aa:	2303      	movs	r3, #3
    19ac:	9308      	str	r3, [sp, #32]

  /* Write cycle times */
  ebiConfig.writeStrobeCycles = 7;
    19ae:	2307      	movs	r3, #7
    19b0:	930d      	str	r3, [sp, #52]	; 0x34
  ebiConfig.writeHoldCycles   = 3;
    19b2:	2303      	movs	r3, #3
    19b4:	930e      	str	r3, [sp, #56]	; 0x38
  ebiConfig.writeSetupCycles  = 3;
    19b6:	2303      	movs	r3, #3
    19b8:	930c      	str	r3, [sp, #48]	; 0x30

  /* Configure EBI bank 0 */
  EBI_Init(&ebiConfig);
    19ba:	466b      	mov	r3, sp
    19bc:	4618      	mov	r0, r3
    19be:	f001 f8a7 	bl	2b10 <EBI_Init>
  /* ----------------------------------------------------- */
  /* TFT-LCD Registers, Bank1, Base Address 0x84000000     */
  /* URT USMH_8252MD_320X240_RGB                           */
  /* Solomon Systech SSD 2119                              */
  /* ----------------------------------------------------- */
  ebiConfig.banks   = EBI_BANK1;
    19c2:	2304      	movs	r3, #4
    19c4:	9303      	str	r3, [sp, #12]
  ebiConfig.csLines = EBI_CS1;
    19c6:	2304      	movs	r3, #4
    19c8:	9304      	str	r3, [sp, #16]

  /* Address Setup and hold time */
  ebiConfig.addrHoldCycles  = 1;
    19ca:	2301      	movs	r3, #1
    19cc:	9306      	str	r3, [sp, #24]
  ebiConfig.addrSetupCycles = 1;
    19ce:	2301      	movs	r3, #1
    19d0:	9305      	str	r3, [sp, #20]

  /* Read cycle times */
  ebiConfig.readStrobeCycles = 7;
    19d2:	2307      	movs	r3, #7
    19d4:	9309      	str	r3, [sp, #36]	; 0x24
  ebiConfig.readHoldCycles   = 3;
    19d6:	2303      	movs	r3, #3
    19d8:	930a      	str	r3, [sp, #40]	; 0x28
  ebiConfig.readSetupCycles  = 3;
    19da:	2303      	movs	r3, #3
    19dc:	9308      	str	r3, [sp, #32]

  /* Write cycle times */
  ebiConfig.writeStrobeCycles = 2;
    19de:	2302      	movs	r3, #2
    19e0:	930d      	str	r3, [sp, #52]	; 0x34
  ebiConfig.writeHoldCycles   = 1;
    19e2:	2301      	movs	r3, #1
    19e4:	930e      	str	r3, [sp, #56]	; 0x38
  ebiConfig.writeSetupCycles  = 1;
    19e6:	2301      	movs	r3, #1
    19e8:	930c      	str	r3, [sp, #48]	; 0x30

  /* Configure EBI bank 1 */
  EBI_Init(&ebiConfig);
    19ea:	466b      	mov	r3, sp
    19ec:	4618      	mov	r0, r3
    19ee:	f001 f88f 	bl	2b10 <EBI_Init>

  /* ----------------------------------------- */
  /* NOR Flash, Bank3, Base Address 0x8c000000 */
  /* Spansion flash S29GLxxx_FBGA              */
  /* ----------------------------------------- */
  ebiConfig.banks       = EBI_BANK3;
    19f2:	2310      	movs	r3, #16
    19f4:	9303      	str	r3, [sp, #12]
  ebiConfig.csLines     = EBI_CS3;
    19f6:	2310      	movs	r3, #16
    19f8:	9304      	str	r3, [sp, #16]
  ebiConfig.mode        = ebiModeD16A16ALE;
    19fa:	2301      	movs	r3, #1
    19fc:	f88d 3000 	strb.w	r3, [sp]
  ebiConfig.alePolarity = ebiActiveHigh;
    1a00:	2301      	movs	r3, #1
    1a02:	f88d 3002 	strb.w	r3, [sp, #2]

  /* keep blEnable */
  ebiConfig.blEnable     = true;
    1a06:	2301      	movs	r3, #1
    1a08:	f88d 3007 	strb.w	r3, [sp, #7]
  ebiConfig.addrHalfALE  = true;
    1a0c:	2301      	movs	r3, #1
    1a0e:	f88d 301c 	strb.w	r3, [sp, #28]
  ebiConfig.readPrefetch = false;
    1a12:	2300      	movs	r3, #0
    1a14:	f88d 302d 	strb.w	r3, [sp, #45]	; 0x2d
  ebiConfig.noIdle       = true;
    1a18:	2301      	movs	r3, #1
    1a1a:	f88d 3008 	strb.w	r3, [sp, #8]

  /* Address Setup and hold time */
  ebiConfig.addrHoldCycles  = 0;
    1a1e:	2300      	movs	r3, #0
    1a20:	9306      	str	r3, [sp, #24]
  ebiConfig.addrSetupCycles = 0;
    1a22:	2300      	movs	r3, #0
    1a24:	9305      	str	r3, [sp, #20]

  /* Read cycle times */
  ebiConfig.readStrobeCycles = 6;
    1a26:	2306      	movs	r3, #6
    1a28:	9309      	str	r3, [sp, #36]	; 0x24
  ebiConfig.readHoldCycles   = 0;
    1a2a:	2300      	movs	r3, #0
    1a2c:	930a      	str	r3, [sp, #40]	; 0x28
  ebiConfig.readSetupCycles  = 0;
    1a2e:	2300      	movs	r3, #0
    1a30:	9308      	str	r3, [sp, #32]

  /* Write cycle times */
  ebiConfig.writeStrobeCycles = 5;
    1a32:	2305      	movs	r3, #5
    1a34:	930d      	str	r3, [sp, #52]	; 0x34
  ebiConfig.writeHoldCycles   = 0;
    1a36:	2300      	movs	r3, #0
    1a38:	930e      	str	r3, [sp, #56]	; 0x38
  ebiConfig.writeSetupCycles  = 0;
    1a3a:	2300      	movs	r3, #0
    1a3c:	930c      	str	r3, [sp, #48]	; 0x30

  /* Configure EBI bank 3 */
  EBI_Init(&ebiConfig);
    1a3e:	466b      	mov	r3, sp
    1a40:	4618      	mov	r0, r3
    1a42:	f001 f865 	bl	2b10 <EBI_Init>

  /* Enable extended address range */
  BSP_EbiExtendedAddressRange(true);
    1a46:	2001      	movs	r0, #1
    1a48:	f7ff fb4e 	bl	10e8 <BSP_EbiExtendedAddressRange>
#endif

  /* Verify connectivity to Board Control registers */
  if (BC_REGISTER->MAGIC != 0xef32)
    1a4c:	f04f 4300 	mov.w	r3, #2147483648	; 0x80000000
    1a50:	889b      	ldrh	r3, [r3, #4]
    1a52:	b29b      	uxth	r3, r3
    1a54:	f64e 7232 	movw	r2, #61234	; 0xef32
    1a58:	4293      	cmp	r3, r2
    1a5a:	d001      	beq.n	1a60 <EbiInit+0x320>
  {
    return false;
    1a5c:	2300      	movs	r3, #0
    1a5e:	e000      	b.n	1a62 <EbiInit+0x322>
  }
  else
  {
    return true;
    1a60:	2301      	movs	r3, #1
  }
}
    1a62:	4618      	mov	r0, r3
    1a64:	b015      	add	sp, #84	; 0x54
    1a66:	f85d fb04 	ldr.w	pc, [sp], #4
    1a6a:	bf00      	nop
    1a6c:	00025300 	.word	0x00025300
    1a70:	0004d200 	.word	0x0004d200

00001a74 <SpiBcAccess>:

static uint16_t SpiBcAccess(uint8_t addr, uint8_t rw, uint16_t data)
{
    1a74:	b500      	push	{lr}
    1a76:	b085      	sub	sp, #20
    1a78:	4603      	mov	r3, r0
    1a7a:	f88d 3007 	strb.w	r3, [sp, #7]
    1a7e:	460b      	mov	r3, r1
    1a80:	f88d 3006 	strb.w	r3, [sp, #6]
    1a84:	4613      	mov	r3, r2
    1a86:	f8ad 3004 	strh.w	r3, [sp, #4]
  uint16_t tmp;

  /* Enable CS */
  GPIO_PinOutClear(BSP_PORT_SPI_CS, BSP_PIN_SPI_CS);
    1a8a:	2105      	movs	r1, #5
    1a8c:	2002      	movs	r0, #2
    1a8e:	f7ff fa0d 	bl	eac <GPIO_PinOutClear>

  /* Write SPI address MSB */
  USART_Tx(BSP_SPI_USART_USED, (addr & 0x3) | rw << 3);
    1a92:	f99d 3007 	ldrsb.w	r3, [sp, #7]
    1a96:	f003 0303 	and.w	r3, r3, #3
    1a9a:	b25a      	sxtb	r2, r3
    1a9c:	f89d 3006 	ldrb.w	r3, [sp, #6]
    1aa0:	00db      	lsls	r3, r3, #3
    1aa2:	b25b      	sxtb	r3, r3
    1aa4:	4313      	orrs	r3, r2
    1aa6:	b25b      	sxtb	r3, r3
    1aa8:	b2db      	uxtb	r3, r3
    1aaa:	4619      	mov	r1, r3
    1aac:	4818      	ldr	r0, [pc, #96]	; (1b10 <SpiBcAccess+0x9c>)
    1aae:	f001 fff3 	bl	3a98 <USART_Tx>
  /* Just ignore data read back */
  USART_Rx(BSP_SPI_USART_USED);
    1ab2:	4817      	ldr	r0, [pc, #92]	; (1b10 <SpiBcAccess+0x9c>)
    1ab4:	f001 ffe0 	bl	3a78 <USART_Rx>

  /* Write SPI address  LSB */
  USART_Tx(BSP_SPI_USART_USED, data & 0xFF);
    1ab8:	f8bd 3004 	ldrh.w	r3, [sp, #4]
    1abc:	b2db      	uxtb	r3, r3
    1abe:	4619      	mov	r1, r3
    1ac0:	4813      	ldr	r0, [pc, #76]	; (1b10 <SpiBcAccess+0x9c>)
    1ac2:	f001 ffe9 	bl	3a98 <USART_Tx>

  tmp = (uint16_t) USART_Rx(BSP_SPI_USART_USED);
    1ac6:	4812      	ldr	r0, [pc, #72]	; (1b10 <SpiBcAccess+0x9c>)
    1ac8:	f001 ffd6 	bl	3a78 <USART_Rx>
    1acc:	4603      	mov	r3, r0
    1ace:	f8ad 300e 	strh.w	r3, [sp, #14]

  /* SPI data MSB */
  USART_Tx(BSP_SPI_USART_USED, data >> 8);
    1ad2:	f8bd 3004 	ldrh.w	r3, [sp, #4]
    1ad6:	0a1b      	lsrs	r3, r3, #8
    1ad8:	b29b      	uxth	r3, r3
    1ada:	b2db      	uxtb	r3, r3
    1adc:	4619      	mov	r1, r3
    1ade:	480c      	ldr	r0, [pc, #48]	; (1b10 <SpiBcAccess+0x9c>)
    1ae0:	f001 ffda 	bl	3a98 <USART_Tx>
  tmp |= (uint16_t) USART_Rx(BSP_SPI_USART_USED) << 8;
    1ae4:	480a      	ldr	r0, [pc, #40]	; (1b10 <SpiBcAccess+0x9c>)
    1ae6:	f001 ffc7 	bl	3a78 <USART_Rx>
    1aea:	4603      	mov	r3, r0
    1aec:	021b      	lsls	r3, r3, #8
    1aee:	b21a      	sxth	r2, r3
    1af0:	f9bd 300e 	ldrsh.w	r3, [sp, #14]
    1af4:	4313      	orrs	r3, r2
    1af6:	b21b      	sxth	r3, r3
    1af8:	f8ad 300e 	strh.w	r3, [sp, #14]

  /* Disable CS */
  GPIO_PinOutSet(BSP_PORT_SPI_CS, BSP_PIN_SPI_CS);
    1afc:	2105      	movs	r1, #5
    1afe:	2002      	movs	r0, #2
    1b00:	f7ff fa04 	bl	f0c <GPIO_PinOutSet>

  return tmp;
    1b04:	f8bd 300e 	ldrh.w	r3, [sp, #14]
}
    1b08:	4618      	mov	r0, r3
    1b0a:	b005      	add	sp, #20
    1b0c:	f85d fb04 	ldr.w	pc, [sp], #4
    1b10:	4000c800 	.word	0x4000c800

00001b14 <SpiBcDisable>:

static void SpiBcDisable(void)
{
    1b14:	b508      	push	{r3, lr}
  /* Restore and disable USART */
  USART_Reset(BSP_SPI_USART_USED);
    1b16:	4810      	ldr	r0, [pc, #64]	; (1b58 <SpiBcDisable+0x44>)
    1b18:	f001 ff5a 	bl	39d0 <USART_Reset>

  GPIO_PinModeSet(BSP_PORT_SPI_TX, BSP_PIN_SPI_TX, gpioModeDisabled, 0);
    1b1c:	2300      	movs	r3, #0
    1b1e:	2200      	movs	r2, #0
    1b20:	2102      	movs	r1, #2
    1b22:	2002      	movs	r0, #2
    1b24:	f001 fd0e 	bl	3544 <GPIO_PinModeSet>
  GPIO_PinModeSet(BSP_PORT_SPI_RX, BSP_PIN_SPI_RX, gpioModeDisabled, 0);
    1b28:	2300      	movs	r3, #0
    1b2a:	2200      	movs	r2, #0
    1b2c:	2103      	movs	r1, #3
    1b2e:	2002      	movs	r0, #2
    1b30:	f001 fd08 	bl	3544 <GPIO_PinModeSet>
  GPIO_PinModeSet(BSP_PORT_SPI_CLK, BSP_PIN_SPI_CLK, gpioModeDisabled, 0);
    1b34:	2300      	movs	r3, #0
    1b36:	2200      	movs	r2, #0
    1b38:	2104      	movs	r1, #4
    1b3a:	2002      	movs	r0, #2
    1b3c:	f001 fd02 	bl	3544 <GPIO_PinModeSet>
  GPIO_PinModeSet(BSP_PORT_SPI_CS, BSP_PIN_SPI_CS, gpioModeDisabled, 0);
    1b40:	2300      	movs	r3, #0
    1b42:	2200      	movs	r2, #0
    1b44:	2105      	movs	r1, #5
    1b46:	2002      	movs	r0, #2
    1b48:	f001 fcfc 	bl	3544 <GPIO_PinModeSet>

  /* Disable USART clock - we can't disable GPIO or HFPER as we don't know who else
   * might be using it */
  CMU_ClockEnable(BSP_SPI_USART_CLK, false);
    1b4c:	2100      	movs	r1, #0
    1b4e:	4803      	ldr	r0, [pc, #12]	; (1b5c <SpiBcDisable+0x48>)
    1b50:	f000 fdaa 	bl	26a8 <CMU_ClockEnable>
}
    1b54:	bf00      	nop
    1b56:	bd08      	pop	{r3, pc}
    1b58:	4000c800 	.word	0x4000c800
    1b5c:	00042200 	.word	0x00042200

00001b60 <SpiBcInit>:

static void SpiBcInit(void)
{
    1b60:	b530      	push	{r4, r5, lr}
    1b62:	b087      	sub	sp, #28
  USART_InitSync_TypeDef bcinit = USART_INITSYNC_DEFAULT;
    1b64:	4b19      	ldr	r3, [pc, #100]	; (1bcc <SpiBcInit+0x6c>)
    1b66:	466c      	mov	r4, sp
    1b68:	461d      	mov	r5, r3
    1b6a:	cd0f      	ldmia	r5!, {r0, r1, r2, r3}
    1b6c:	c40f      	stmia	r4!, {r0, r1, r2, r3}
    1b6e:	e895 0003 	ldmia.w	r5, {r0, r1}
    1b72:	e884 0003 	stmia.w	r4, {r0, r1}

  /* Enable module clocks */
  CMU_ClockEnable(BSP_SPI_USART_CLK, true);
    1b76:	2101      	movs	r1, #1
    1b78:	4815      	ldr	r0, [pc, #84]	; (1bd0 <SpiBcInit+0x70>)
    1b7a:	f000 fd95 	bl	26a8 <CMU_ClockEnable>

  /* Configure SPI pins */
  GPIO_PinModeSet(BSP_PORT_SPI_TX, BSP_PIN_SPI_TX, gpioModePushPull, 0);
    1b7e:	2300      	movs	r3, #0
    1b80:	2204      	movs	r2, #4
    1b82:	2102      	movs	r1, #2
    1b84:	2002      	movs	r0, #2
    1b86:	f001 fcdd 	bl	3544 <GPIO_PinModeSet>
  GPIO_PinModeSet(BSP_PORT_SPI_RX, BSP_PIN_SPI_RX, gpioModeInput, 0);
    1b8a:	2300      	movs	r3, #0
    1b8c:	2201      	movs	r2, #1
    1b8e:	2103      	movs	r1, #3
    1b90:	2002      	movs	r0, #2
    1b92:	f001 fcd7 	bl	3544 <GPIO_PinModeSet>
  GPIO_PinModeSet(BSP_PORT_SPI_CLK, BSP_PIN_SPI_CLK, gpioModePushPull, 0);
    1b96:	2300      	movs	r3, #0
    1b98:	2204      	movs	r2, #4
    1b9a:	2104      	movs	r1, #4
    1b9c:	2002      	movs	r0, #2
    1b9e:	f001 fcd1 	bl	3544 <GPIO_PinModeSet>

  /* Keep CS high to not activate slave */
  GPIO_PinModeSet(BSP_PORT_SPI_CS, BSP_PIN_SPI_CS, gpioModePushPull, 1);
    1ba2:	2301      	movs	r3, #1
    1ba4:	2204      	movs	r2, #4
    1ba6:	2105      	movs	r1, #5
    1ba8:	2002      	movs	r0, #2
    1baa:	f001 fccb 	bl	3544 <GPIO_PinModeSet>
  /* for all configurations. */

  #if defined(_EFM32_GECKO_FAMILY)
    bcinit.refFreq  = 32000000;
  #else
    bcinit.refFreq  = 48000000;
    1bae:	4b09      	ldr	r3, [pc, #36]	; (1bd4 <SpiBcInit+0x74>)
    1bb0:	9301      	str	r3, [sp, #4]
  #endif
  bcinit.baudrate = 7000000;
    1bb2:	4b09      	ldr	r3, [pc, #36]	; (1bd8 <SpiBcInit+0x78>)
    1bb4:	9302      	str	r3, [sp, #8]

  /* Initialize USART */
  USART_InitSync(BSP_SPI_USART_USED, &bcinit);
    1bb6:	466b      	mov	r3, sp
    1bb8:	4619      	mov	r1, r3
    1bba:	4808      	ldr	r0, [pc, #32]	; (1bdc <SpiBcInit+0x7c>)
    1bbc:	f001 fea4 	bl	3908 <USART_InitSync>

  /* Enable pins at default location */
  BSP_SPI_USART_USED->ROUTE = USART_ROUTE_TXPEN | USART_ROUTE_RXPEN | USART_ROUTE_CLKPEN;
    1bc0:	4b06      	ldr	r3, [pc, #24]	; (1bdc <SpiBcInit+0x7c>)
    1bc2:	220b      	movs	r2, #11
    1bc4:	655a      	str	r2, [r3, #84]	; 0x54
}
    1bc6:	bf00      	nop
    1bc8:	b007      	add	sp, #28
    1bca:	bd30      	pop	{r4, r5, pc}
    1bcc:	00004ff8 	.word	0x00004ff8
    1bd0:	00042200 	.word	0x00042200
    1bd4:	02dc6c00 	.word	0x02dc6c00
    1bd8:	006acfc0 	.word	0x006acfc0
    1bdc:	4000c800 	.word	0x4000c800

00001be0 <SpiControl>:

static void SpiControl(BSP_SpiControl_TypeDef device)
{
    1be0:	b500      	push	{lr}
    1be2:	b083      	sub	sp, #12
    1be4:	4603      	mov	r3, r0
    1be6:	f88d 3007 	strb.w	r3, [sp, #7]
  switch (device)
    1bea:	f89d 3007 	ldrb.w	r3, [sp, #7]
    1bee:	2b03      	cmp	r3, #3
    1bf0:	d821      	bhi.n	1c36 <SpiControl+0x56>
    1bf2:	a201      	add	r2, pc, #4	; (adr r2, 1bf8 <SpiControl+0x18>)
    1bf4:	f852 f023 	ldr.w	pc, [r2, r3, lsl #2]
    1bf8:	00001c09 	.word	0x00001c09
    1bfc:	00001c13 	.word	0x00001c13
    1c00:	00001c1d 	.word	0x00001c1d
    1c04:	00001c27 	.word	0x00001c27
  {
  case BSP_SPI_Audio:
    BSP_RegisterWrite(&BC_REGISTER->SPI_DEMUX, BC_SPI_DEMUX_SLAVE_AUDIO);
    1c08:	2100      	movs	r1, #0
    1c0a:	480d      	ldr	r0, [pc, #52]	; (1c40 <SpiControl+0x60>)
    1c0c:	f7ff fcaa 	bl	1564 <BSP_RegisterWrite>
    break;
    1c10:	e011      	b.n	1c36 <SpiControl+0x56>

  case BSP_SPI_Ethernet:
    BSP_RegisterWrite(&BC_REGISTER->SPI_DEMUX, BC_SPI_DEMUX_SLAVE_ETHERNET);
    1c12:	2101      	movs	r1, #1
    1c14:	480a      	ldr	r0, [pc, #40]	; (1c40 <SpiControl+0x60>)
    1c16:	f7ff fca5 	bl	1564 <BSP_RegisterWrite>
    break;
    1c1a:	e00c      	b.n	1c36 <SpiControl+0x56>

  case BSP_SPI_Display:
    BSP_RegisterWrite(&BC_REGISTER->SPI_DEMUX, BC_SPI_DEMUX_SLAVE_DISPLAY);
    1c1c:	2102      	movs	r1, #2
    1c1e:	4808      	ldr	r0, [pc, #32]	; (1c40 <SpiControl+0x60>)
    1c20:	f7ff fca0 	bl	1564 <BSP_RegisterWrite>
    break;
    1c24:	e007      	b.n	1c36 <SpiControl+0x56>

  case BSP_SPI_OFF:
    USART_Reset(USART1);
    1c26:	4807      	ldr	r0, [pc, #28]	; (1c44 <SpiControl+0x64>)
    1c28:	f001 fed2 	bl	39d0 <USART_Reset>
    CMU_ClockEnable(cmuClock_USART1, false);
    1c2c:	2100      	movs	r1, #0
    1c2e:	4806      	ldr	r0, [pc, #24]	; (1c48 <SpiControl+0x68>)
    1c30:	f000 fd3a 	bl	26a8 <CMU_ClockEnable>
    break;
    1c34:	bf00      	nop
  }
}
    1c36:	bf00      	nop
    1c38:	b003      	add	sp, #12
    1c3a:	f85d fb04 	ldr.w	pc, [sp], #4
    1c3e:	bf00      	nop
    1c40:	8000001a 	.word	0x8000001a
    1c44:	4000c400 	.word	0x4000c400
    1c48:	00041200 	.word	0x00041200

00001c4c <SpiInit>:

static bool SpiInit(void)
{
    1c4c:	b500      	push	{lr}
    1c4e:	b083      	sub	sp, #12
  uint16_t bcMagic;

  /* Enable HF and GPIO clocks */
  CMU_ClockEnable(cmuClock_HFPER, true);
    1c50:	2101      	movs	r1, #1
    1c52:	480e      	ldr	r0, [pc, #56]	; (1c8c <SpiInit+0x40>)
    1c54:	f000 fd28 	bl	26a8 <CMU_ClockEnable>
  CMU_ClockEnable(cmuClock_GPIO, true);
    1c58:	2101      	movs	r1, #1
    1c5a:	480d      	ldr	r0, [pc, #52]	; (1c90 <SpiInit+0x44>)
    1c5c:	f000 fd24 	bl	26a8 <CMU_ClockEnable>

  SpiBcInit();
    1c60:	f7ff ff7e 	bl	1b60 <SpiBcInit>
  /* Read "board control Magic" register to verify SPI is up and running */
  /*  if not FPGA is configured to be in EBI mode  */
  bcMagic = SpiRegisterRead(&BC_REGISTER->MAGIC);
    1c64:	480b      	ldr	r0, [pc, #44]	; (1c94 <SpiInit+0x48>)
    1c66:	f000 f817 	bl	1c98 <SpiRegisterRead>
    1c6a:	4603      	mov	r3, r0
    1c6c:	f8ad 3006 	strh.w	r3, [sp, #6]
  if (bcMagic != BC_MAGIC_VALUE)
    1c70:	f8bd 3006 	ldrh.w	r3, [sp, #6]
    1c74:	f64e 7232 	movw	r2, #61234	; 0xef32
    1c78:	4293      	cmp	r3, r2
    1c7a:	d001      	beq.n	1c80 <SpiInit+0x34>
  {
    return false;
    1c7c:	2300      	movs	r3, #0
    1c7e:	e000      	b.n	1c82 <SpiInit+0x36>
  }
  else
  {
    return true;
    1c80:	2301      	movs	r3, #1
  }
}
    1c82:	4618      	mov	r0, r3
    1c84:	b003      	add	sp, #12
    1c86:	f85d fb04 	ldr.w	pc, [sp], #4
    1c8a:	bf00      	nop
    1c8c:	00048140 	.word	0x00048140
    1c90:	0004d200 	.word	0x0004d200
    1c94:	80000004 	.word	0x80000004

00001c98 <SpiRegisterRead>:

static uint16_t SpiRegisterRead(volatile uint16_t *addr)
{
    1c98:	b500      	push	{lr}
    1c9a:	b085      	sub	sp, #20
    1c9c:	9001      	str	r0, [sp, #4]
  uint16_t data;

  if (addr != lastAddr)
    1c9e:	4b1d      	ldr	r3, [pc, #116]	; (1d14 <SpiRegisterRead+0x7c>)
    1ca0:	681b      	ldr	r3, [r3, #0]
    1ca2:	9a01      	ldr	r2, [sp, #4]
    1ca4:	429a      	cmp	r2, r3
    1ca6:	d01b      	beq.n	1ce0 <SpiRegisterRead+0x48>
  {
    SpiBcAccess(0x00, 0, 0xFFFF & ((uint32_t) addr));           /* LSBs of address */
    1ca8:	9b01      	ldr	r3, [sp, #4]
    1caa:	b29b      	uxth	r3, r3
    1cac:	461a      	mov	r2, r3
    1cae:	2100      	movs	r1, #0
    1cb0:	2000      	movs	r0, #0
    1cb2:	f7ff fedf 	bl	1a74 <SpiBcAccess>
    SpiBcAccess(0x01, 0, 0xFF & ((uint32_t) addr >> 16));       /* MSBs of address */
    1cb6:	9b01      	ldr	r3, [sp, #4]
    1cb8:	0c1b      	lsrs	r3, r3, #16
    1cba:	b29b      	uxth	r3, r3
    1cbc:	b2db      	uxtb	r3, r3
    1cbe:	b29b      	uxth	r3, r3
    1cc0:	461a      	mov	r2, r3
    1cc2:	2100      	movs	r1, #0
    1cc4:	2001      	movs	r0, #1
    1cc6:	f7ff fed5 	bl	1a74 <SpiBcAccess>
    SpiBcAccess(0x02, 0, (0x0C000000 & (uint32_t) addr) >> 26); /* Chip select */
    1cca:	9b01      	ldr	r3, [sp, #4]
    1ccc:	0e9b      	lsrs	r3, r3, #26
    1cce:	b29b      	uxth	r3, r3
    1cd0:	f003 0303 	and.w	r3, r3, #3
    1cd4:	b29b      	uxth	r3, r3
    1cd6:	461a      	mov	r2, r3
    1cd8:	2100      	movs	r1, #0
    1cda:	2002      	movs	r0, #2
    1cdc:	f7ff feca 	bl	1a74 <SpiBcAccess>
  }
  /* Read twice; when register address has changed we need two SPI transfer
   * to clock out valid data through board controller FIFOs */
  data     = SpiBcAccess(0x03, 1, 0);
    1ce0:	2200      	movs	r2, #0
    1ce2:	2101      	movs	r1, #1
    1ce4:	2003      	movs	r0, #3
    1ce6:	f7ff fec5 	bl	1a74 <SpiBcAccess>
    1cea:	4603      	mov	r3, r0
    1cec:	f8ad 300e 	strh.w	r3, [sp, #14]
  data     = SpiBcAccess(0x03, 1, 0);
    1cf0:	2200      	movs	r2, #0
    1cf2:	2101      	movs	r1, #1
    1cf4:	2003      	movs	r0, #3
    1cf6:	f7ff febd 	bl	1a74 <SpiBcAccess>
    1cfa:	4603      	mov	r3, r0
    1cfc:	f8ad 300e 	strh.w	r3, [sp, #14]

  lastAddr = addr;
    1d00:	4a04      	ldr	r2, [pc, #16]	; (1d14 <SpiRegisterRead+0x7c>)
    1d02:	9b01      	ldr	r3, [sp, #4]
    1d04:	6013      	str	r3, [r2, #0]
  return data;
    1d06:	f8bd 300e 	ldrh.w	r3, [sp, #14]
}
    1d0a:	4618      	mov	r0, r3
    1d0c:	b005      	add	sp, #20
    1d0e:	f85d fb04 	ldr.w	pc, [sp], #4
    1d12:	bf00      	nop
    1d14:	2000078c 	.word	0x2000078c

00001d18 <SpiRegisterWrite>:

static void SpiRegisterWrite(volatile uint16_t *addr, uint16_t data)
{
    1d18:	b500      	push	{lr}
    1d1a:	b083      	sub	sp, #12
    1d1c:	9001      	str	r0, [sp, #4]
    1d1e:	460b      	mov	r3, r1
    1d20:	f8ad 3002 	strh.w	r3, [sp, #2]
  if (addr != lastAddr)
    1d24:	4b17      	ldr	r3, [pc, #92]	; (1d84 <SpiRegisterWrite+0x6c>)
    1d26:	681b      	ldr	r3, [r3, #0]
    1d28:	9a01      	ldr	r2, [sp, #4]
    1d2a:	429a      	cmp	r2, r3
    1d2c:	d01b      	beq.n	1d66 <SpiRegisterWrite+0x4e>
  {
    SpiBcAccess(0x00, 0, 0xFFFF & ((uint32_t) addr));           /* LSBs of address */
    1d2e:	9b01      	ldr	r3, [sp, #4]
    1d30:	b29b      	uxth	r3, r3
    1d32:	461a      	mov	r2, r3
    1d34:	2100      	movs	r1, #0
    1d36:	2000      	movs	r0, #0
    1d38:	f7ff fe9c 	bl	1a74 <SpiBcAccess>
    SpiBcAccess(0x01, 0, 0xFF & ((uint32_t) addr >> 16));       /* MSBs of address */
    1d3c:	9b01      	ldr	r3, [sp, #4]
    1d3e:	0c1b      	lsrs	r3, r3, #16
    1d40:	b29b      	uxth	r3, r3
    1d42:	b2db      	uxtb	r3, r3
    1d44:	b29b      	uxth	r3, r3
    1d46:	461a      	mov	r2, r3
    1d48:	2100      	movs	r1, #0
    1d4a:	2001      	movs	r0, #1
    1d4c:	f7ff fe92 	bl	1a74 <SpiBcAccess>
    SpiBcAccess(0x02, 0, (0x0C000000 & (uint32_t) addr) >> 26); /* Chip select */
    1d50:	9b01      	ldr	r3, [sp, #4]
    1d52:	0e9b      	lsrs	r3, r3, #26
    1d54:	b29b      	uxth	r3, r3
    1d56:	f003 0303 	and.w	r3, r3, #3
    1d5a:	b29b      	uxth	r3, r3
    1d5c:	461a      	mov	r2, r3
    1d5e:	2100      	movs	r1, #0
    1d60:	2002      	movs	r0, #2
    1d62:	f7ff fe87 	bl	1a74 <SpiBcAccess>
  }
  SpiBcAccess(0x03, 0, data);                                   /* Data */
    1d66:	f8bd 3002 	ldrh.w	r3, [sp, #2]
    1d6a:	461a      	mov	r2, r3
    1d6c:	2100      	movs	r1, #0
    1d6e:	2003      	movs	r0, #3
    1d70:	f7ff fe80 	bl	1a74 <SpiBcAccess>
  lastAddr = addr;
    1d74:	4a03      	ldr	r2, [pc, #12]	; (1d84 <SpiRegisterWrite+0x6c>)
    1d76:	9b01      	ldr	r3, [sp, #4]
    1d78:	6013      	str	r3, [r2, #0]
}
    1d7a:	bf00      	nop
    1d7c:	b003      	add	sp, #12
    1d7e:	f85d fb04 	ldr.w	pc, [sp], #4
    1d82:	bf00      	nop
    1d84:	2000078c 	.word	0x2000078c

00001d88 <update_status>:

pynq_t pynqs[PYNQ_SIZE];
char pynq_map[PYNQ_SIZE];
unsigned int pynq_num;

void update_status() {
    1d88:	b510      	push	{r4, lr}
    1d8a:	b086      	sub	sp, #24
	reset();
    1d8c:	f7fe fabc 	bl	308 <reset>
	writef("unit    progress", get_buffer(), 0, 0, 1);
    1d90:	f7fe fade 	bl	350 <get_buffer>
    1d94:	4601      	mov	r1, r0
    1d96:	2301      	movs	r3, #1
    1d98:	9300      	str	r3, [sp, #0]
    1d9a:	2300      	movs	r3, #0
    1d9c:	2200      	movs	r2, #0
    1d9e:	4828      	ldr	r0, [pc, #160]	; (1e40 <update_status+0xb8>)
    1da0:	f7fe fcd2 	bl	748 <writef>
	for(int i = 0; i < pynq_num; i++) {
    1da4:	2300      	movs	r3, #0
    1da6:	9305      	str	r3, [sp, #20]
    1da8:	e01f      	b.n	1dea <update_status+0x62>
		writef("pynq%i   %i\%", get_buffer(), 0, (i + 1)*9 + 5, 1, pynqs[i].index, pynqs[i].percentage);
    1daa:	f7fe fad1 	bl	350 <get_buffer>
    1dae:	9b05      	ldr	r3, [sp, #20]
    1db0:	1c5a      	adds	r2, r3, #1
    1db2:	4613      	mov	r3, r2
    1db4:	00db      	lsls	r3, r3, #3
    1db6:	4413      	add	r3, r2
    1db8:	3305      	adds	r3, #5
    1dba:	461c      	mov	r4, r3
    1dbc:	4a21      	ldr	r2, [pc, #132]	; (1e44 <update_status+0xbc>)
    1dbe:	9b05      	ldr	r3, [sp, #20]
    1dc0:	f812 3013 	ldrb.w	r3, [r2, r3, lsl #1]
    1dc4:	4619      	mov	r1, r3
    1dc6:	4a1f      	ldr	r2, [pc, #124]	; (1e44 <update_status+0xbc>)
    1dc8:	9b05      	ldr	r3, [sp, #20]
    1dca:	005b      	lsls	r3, r3, #1
    1dcc:	4413      	add	r3, r2
    1dce:	785b      	ldrb	r3, [r3, #1]
    1dd0:	9302      	str	r3, [sp, #8]
    1dd2:	9101      	str	r1, [sp, #4]
    1dd4:	2301      	movs	r3, #1
    1dd6:	9300      	str	r3, [sp, #0]
    1dd8:	4623      	mov	r3, r4
    1dda:	2200      	movs	r2, #0
    1ddc:	4601      	mov	r1, r0
    1dde:	481a      	ldr	r0, [pc, #104]	; (1e48 <update_status+0xc0>)
    1de0:	f7fe fcb2 	bl	748 <writef>
unsigned int pynq_num;

void update_status() {
	reset();
	writef("unit    progress", get_buffer(), 0, 0, 1);
	for(int i = 0; i < pynq_num; i++) {
    1de4:	9b05      	ldr	r3, [sp, #20]
    1de6:	3301      	adds	r3, #1
    1de8:	9305      	str	r3, [sp, #20]
    1dea:	9a05      	ldr	r2, [sp, #20]
    1dec:	4b17      	ldr	r3, [pc, #92]	; (1e4c <update_status+0xc4>)
    1dee:	681b      	ldr	r3, [r3, #0]
    1df0:	429a      	cmp	r2, r3
    1df2:	d3da      	bcc.n	1daa <update_status+0x22>
		writef("pynq%i   %i\%", get_buffer(), 0, (i + 1)*9 + 5, 1, pynqs[i].index, pynqs[i].percentage);
	}

	for(int i = 0; i < 8; i++) writef("%i", get_buffer(), i*8, 120, 1, (last_char >> (7 - i)) & 1);
    1df4:	2300      	movs	r3, #0
    1df6:	9304      	str	r3, [sp, #16]
    1df8:	e01a      	b.n	1e30 <update_status+0xa8>
    1dfa:	f7fe faa9 	bl	350 <get_buffer>
    1dfe:	4601      	mov	r1, r0
    1e00:	9b04      	ldr	r3, [sp, #16]
    1e02:	00db      	lsls	r3, r3, #3
    1e04:	4618      	mov	r0, r3
    1e06:	4b12      	ldr	r3, [pc, #72]	; (1e50 <update_status+0xc8>)
    1e08:	781b      	ldrb	r3, [r3, #0]
    1e0a:	461a      	mov	r2, r3
    1e0c:	9b04      	ldr	r3, [sp, #16]
    1e0e:	f1c3 0307 	rsb	r3, r3, #7
    1e12:	fa42 f303 	asr.w	r3, r2, r3
    1e16:	f003 0301 	and.w	r3, r3, #1
    1e1a:	9301      	str	r3, [sp, #4]
    1e1c:	2301      	movs	r3, #1
    1e1e:	9300      	str	r3, [sp, #0]
    1e20:	2378      	movs	r3, #120	; 0x78
    1e22:	4602      	mov	r2, r0
    1e24:	480b      	ldr	r0, [pc, #44]	; (1e54 <update_status+0xcc>)
    1e26:	f7fe fc8f 	bl	748 <writef>
    1e2a:	9b04      	ldr	r3, [sp, #16]
    1e2c:	3301      	adds	r3, #1
    1e2e:	9304      	str	r3, [sp, #16]
    1e30:	9b04      	ldr	r3, [sp, #16]
    1e32:	2b07      	cmp	r3, #7
    1e34:	dde1      	ble.n	1dfa <update_status+0x72>
	update();
    1e36:	f7fe fa47 	bl	2c8 <update>
}
    1e3a:	bf00      	nop
    1e3c:	b006      	add	sp, #24
    1e3e:	bd10      	pop	{r4, pc}
    1e40:	00005010 	.word	0x00005010
    1e44:	200011c0 	.word	0x200011c0
    1e48:	00005024 	.word	0x00005024
    1e4c:	200011d0 	.word	0x200011d0
    1e50:	200011d4 	.word	0x200011d4
    1e54:	00005034 	.word	0x00005034

00001e58 <reset_table>:

void reset_table() {
    1e58:	b500      	push	{lr}
    1e5a:	b083      	sub	sp, #12
	for(int i = 0; i < PYNQ_SIZE; i++) {
    1e5c:	2300      	movs	r3, #0
    1e5e:	9301      	str	r3, [sp, #4]
    1e60:	e012      	b.n	1e88 <reset_table+0x30>
		pynqs[i].percentage = 0;
    1e62:	4a14      	ldr	r2, [pc, #80]	; (1eb4 <reset_table+0x5c>)
    1e64:	9b01      	ldr	r3, [sp, #4]
    1e66:	005b      	lsls	r3, r3, #1
    1e68:	4413      	add	r3, r2
    1e6a:	2200      	movs	r2, #0
    1e6c:	705a      	strb	r2, [r3, #1]
		pynqs[i].index = 0;
    1e6e:	4a11      	ldr	r2, [pc, #68]	; (1eb4 <reset_table+0x5c>)
    1e70:	9b01      	ldr	r3, [sp, #4]
    1e72:	2100      	movs	r1, #0
    1e74:	f802 1013 	strb.w	r1, [r2, r3, lsl #1]
		pynq_map[i] = 10;
    1e78:	4a0f      	ldr	r2, [pc, #60]	; (1eb8 <reset_table+0x60>)
    1e7a:	9b01      	ldr	r3, [sp, #4]
    1e7c:	4413      	add	r3, r2
    1e7e:	220a      	movs	r2, #10
    1e80:	701a      	strb	r2, [r3, #0]
	for(int i = 0; i < 8; i++) writef("%i", get_buffer(), i*8, 120, 1, (last_char >> (7 - i)) & 1);
	update();
}

void reset_table() {
	for(int i = 0; i < PYNQ_SIZE; i++) {
    1e82:	9b01      	ldr	r3, [sp, #4]
    1e84:	3301      	adds	r3, #1
    1e86:	9301      	str	r3, [sp, #4]
    1e88:	9b01      	ldr	r3, [sp, #4]
    1e8a:	2b07      	cmp	r3, #7
    1e8c:	dde9      	ble.n	1e62 <reset_table+0xa>
		pynqs[i].percentage = 0;
		pynqs[i].index = 0;
		pynq_map[i] = 10;
	}
	pynq_num = 0;
    1e8e:	4b0b      	ldr	r3, [pc, #44]	; (1ebc <reset_table+0x64>)
    1e90:	2200      	movs	r2, #0
    1e92:	601a      	str	r2, [r3, #0]

	reset();
    1e94:	f7fe fa38 	bl	308 <reset>
	write_image(get_buffer(), start_image, 69, 128);
    1e98:	f7fe fa5a 	bl	350 <get_buffer>
    1e9c:	2380      	movs	r3, #128	; 0x80
    1e9e:	2245      	movs	r2, #69	; 0x45
    1ea0:	4907      	ldr	r1, [pc, #28]	; (1ec0 <reset_table+0x68>)
    1ea2:	f000 f8cd 	bl	2040 <write_image>
	update();
    1ea6:	f7fe fa0f 	bl	2c8 <update>
}
    1eaa:	bf00      	nop
    1eac:	b003      	add	sp, #12
    1eae:	f85d fb04 	ldr.w	pc, [sp], #4
    1eb2:	bf00      	nop
    1eb4:	200011c0 	.word	0x200011c0
    1eb8:	200011b8 	.word	0x200011b8
    1ebc:	200011d0 	.word	0x200011d0
    1ec0:	20000158 	.word	0x20000158
    1ec4:	00000000 	.word	0x00000000

00001ec8 <parse_command>:

void parse_command(char c) {
    1ec8:	b510      	push	{r4, lr}
    1eca:	b084      	sub	sp, #16
    1ecc:	4603      	mov	r3, r0
    1ece:	f88d 3007 	strb.w	r3, [sp, #7]
	if(c & 0b10000000) {
    1ed2:	f99d 3007 	ldrsb.w	r3, [sp, #7]
    1ed6:	2b00      	cmp	r3, #0
    1ed8:	da02      	bge.n	1ee0 <parse_command+0x18>
		reset_table();
    1eda:	f7ff ffbd 	bl	1e58 <reset_table>
		return;
    1ede:	e046      	b.n	1f6e <parse_command+0xa6>
	}

	char server_id	= c >> 4 & 0b111;
    1ee0:	f89d 3007 	ldrb.w	r3, [sp, #7]
    1ee4:	091b      	lsrs	r3, r3, #4
    1ee6:	b2db      	uxtb	r3, r3
    1ee8:	f003 0307 	and.w	r3, r3, #7
    1eec:	f88d 300e 	strb.w	r3, [sp, #14]

	if(pynq_map[server_id] == 10) {
    1ef0:	f89d 300e 	ldrb.w	r3, [sp, #14]
    1ef4:	4a22      	ldr	r2, [pc, #136]	; (1f80 <parse_command+0xb8>)
    1ef6:	5cd3      	ldrb	r3, [r2, r3]
    1ef8:	2b0a      	cmp	r3, #10
    1efa:	d110      	bne.n	1f1e <parse_command+0x56>
		pynq_map[server_id] = pynq_num;
    1efc:	f89d 300e 	ldrb.w	r3, [sp, #14]
    1f00:	4a20      	ldr	r2, [pc, #128]	; (1f84 <parse_command+0xbc>)
    1f02:	6812      	ldr	r2, [r2, #0]
    1f04:	b2d1      	uxtb	r1, r2
    1f06:	4a1e      	ldr	r2, [pc, #120]	; (1f80 <parse_command+0xb8>)
    1f08:	54d1      	strb	r1, [r2, r3]
		pynqs[pynq_num++].index = server_id;
    1f0a:	4b1e      	ldr	r3, [pc, #120]	; (1f84 <parse_command+0xbc>)
    1f0c:	681b      	ldr	r3, [r3, #0]
    1f0e:	1c5a      	adds	r2, r3, #1
    1f10:	491c      	ldr	r1, [pc, #112]	; (1f84 <parse_command+0xbc>)
    1f12:	600a      	str	r2, [r1, #0]
    1f14:	491c      	ldr	r1, [pc, #112]	; (1f88 <parse_command+0xc0>)
    1f16:	f89d 200e 	ldrb.w	r2, [sp, #14]
    1f1a:	f801 2013 	strb.w	r2, [r1, r3, lsl #1]
	}

	char percentage	= (c & 0b1111)*6.67;
    1f1e:	f89d 3007 	ldrb.w	r3, [sp, #7]
    1f22:	f003 030f 	and.w	r3, r3, #15
    1f26:	4618      	mov	r0, r3
    1f28:	f001 ff1c 	bl	3d64 <__aeabi_i2d>
    1f2c:	a312      	add	r3, pc, #72	; (adr r3, 1f78 <parse_command+0xb0>)
    1f2e:	e9d3 2300 	ldrd	r2, r3, [r3]
    1f32:	f001 ff7d 	bl	3e30 <__aeabi_dmul>
    1f36:	4603      	mov	r3, r0
    1f38:	460c      	mov	r4, r1
    1f3a:	4618      	mov	r0, r3
    1f3c:	4621      	mov	r1, r4
    1f3e:	f002 f989 	bl	4254 <__aeabi_d2uiz>
    1f42:	4603      	mov	r3, r0
    1f44:	f88d 300f 	strb.w	r3, [sp, #15]
	if(percentage > 100) percentage = 100;
    1f48:	f89d 300f 	ldrb.w	r3, [sp, #15]
    1f4c:	2b64      	cmp	r3, #100	; 0x64
    1f4e:	d902      	bls.n	1f56 <parse_command+0x8e>
    1f50:	2364      	movs	r3, #100	; 0x64
    1f52:	f88d 300f 	strb.w	r3, [sp, #15]

	pynqs[pynq_map[server_id]].percentage = percentage;
    1f56:	f89d 300e 	ldrb.w	r3, [sp, #14]
    1f5a:	4a09      	ldr	r2, [pc, #36]	; (1f80 <parse_command+0xb8>)
    1f5c:	5cd3      	ldrb	r3, [r2, r3]
    1f5e:	4a0a      	ldr	r2, [pc, #40]	; (1f88 <parse_command+0xc0>)
    1f60:	005b      	lsls	r3, r3, #1
    1f62:	4413      	add	r3, r2
    1f64:	f89d 200f 	ldrb.w	r2, [sp, #15]
    1f68:	705a      	strb	r2, [r3, #1]
	update_status();
    1f6a:	f7ff ff0d 	bl	1d88 <update_status>
}
    1f6e:	b004      	add	sp, #16
    1f70:	bd10      	pop	{r4, pc}
    1f72:	bf00      	nop
    1f74:	f3af 8000 	nop.w
    1f78:	7ae147ae 	.word	0x7ae147ae
    1f7c:	401aae14 	.word	0x401aae14
    1f80:	200011b8 	.word	0x200011b8
    1f84:	200011d0 	.word	0x200011d0
    1f88:	200011c0 	.word	0x200011c0

00001f8c <recv_char>:

void recv_char(char c) {
    1f8c:	b500      	push	{lr}
    1f8e:	b083      	sub	sp, #12
    1f90:	4603      	mov	r3, r0
    1f92:	f88d 3007 	strb.w	r3, [sp, #7]
	if(c == last_char) return;
    1f96:	4b0a      	ldr	r3, [pc, #40]	; (1fc0 <recv_char+0x34>)
    1f98:	781b      	ldrb	r3, [r3, #0]
    1f9a:	f89d 2007 	ldrb.w	r2, [sp, #7]
    1f9e:	429a      	cmp	r2, r3
    1fa0:	d009      	beq.n	1fb6 <recv_char+0x2a>
	last_char = c;
    1fa2:	4a07      	ldr	r2, [pc, #28]	; (1fc0 <recv_char+0x34>)
    1fa4:	f89d 3007 	ldrb.w	r3, [sp, #7]
    1fa8:	7013      	strb	r3, [r2, #0]
	parse_command(c);
    1faa:	f89d 3007 	ldrb.w	r3, [sp, #7]
    1fae:	4618      	mov	r0, r3
    1fb0:	f7ff ff8a 	bl	1ec8 <parse_command>
    1fb4:	e000      	b.n	1fb8 <recv_char+0x2c>
	pynqs[pynq_map[server_id]].percentage = percentage;
	update_status();
}

void recv_char(char c) {
	if(c == last_char) return;
    1fb6:	bf00      	nop
	last_char = c;
	parse_command(c);
}
    1fb8:	b003      	add	sp, #12
    1fba:	f85d fb04 	ldr.w	pc, [sp], #4
    1fbe:	bf00      	nop
    1fc0:	200011d4 	.word	0x200011d4

00001fc4 <communicator_setup_lcd>:

void communicator_setup_lcd() {
    1fc4:	b508      	push	{r3, lr}
	setup_LCD();
    1fc6:	f7fe f94b 	bl	260 <setup_LCD>
}
    1fca:	bf00      	nop
    1fcc:	bd08      	pop	{r3, pc}
    1fce:	bf00      	nop

00001fd0 <communicator_setup_uart>:

void communicator_setup_uart() {
    1fd0:	b508      	push	{r3, lr}
	set_recv_callback(&recv_char);
    1fd2:	4803      	ldr	r0, [pc, #12]	; (1fe0 <communicator_setup_uart+0x10>)
    1fd4:	f7fe ff60 	bl	e98 <set_recv_callback>

	setup_uart();
    1fd8:	f7fe fdb0 	bl	b3c <setup_uart>
}
    1fdc:	bf00      	nop
    1fde:	bd08      	pop	{r3, pc}
    1fe0:	00001f8d 	.word	0x00001f8d

00001fe4 <setup_project>:

void setup_project() {
    1fe4:	b508      	push	{r3, lr}
	communicator_setup_lcd();
    1fe6:	f7ff ffed 	bl	1fc4 <communicator_setup_lcd>
	reset_table();
    1fea:	f7ff ff35 	bl	1e58 <reset_table>
	communicator_setup_uart();
    1fee:	f7ff ffef 	bl	1fd0 <communicator_setup_uart>
	free(pynqs);
    1ff2:	4802      	ldr	r0, [pc, #8]	; (1ffc <setup_project+0x18>)
    1ff4:	f002 fb82 	bl	46fc <free>
}
    1ff8:	bf00      	nop
    1ffa:	bd08      	pop	{r3, pc}
    1ffc:	200011c0 	.word	0x200011c0

00002000 <ceil>:

#include <stdio.h>

#define LINE_WIDTH 18

int ceil(float f) {
    2000:	b500      	push	{lr}
    2002:	b083      	sub	sp, #12
    2004:	9001      	str	r0, [sp, #4]
	if(f == (int)f) return f;
    2006:	9801      	ldr	r0, [sp, #4]
    2008:	f002 fb18 	bl	463c <__aeabi_f2iz>
    200c:	4603      	mov	r3, r0
    200e:	4618      	mov	r0, r3
    2010:	f002 fa4a 	bl	44a8 <__aeabi_i2f>
    2014:	4603      	mov	r3, r0
    2016:	9901      	ldr	r1, [sp, #4]
    2018:	4618      	mov	r0, r3
    201a:	f002 fadd 	bl	45d8 <__aeabi_fcmpeq>
    201e:	4603      	mov	r3, r0
    2020:	2b00      	cmp	r3, #0
    2022:	d004      	beq.n	202e <ceil+0x2e>
    2024:	9801      	ldr	r0, [sp, #4]
    2026:	f002 fb09 	bl	463c <__aeabi_f2iz>
    202a:	4603      	mov	r3, r0
    202c:	e004      	b.n	2038 <ceil+0x38>
	return ((int)f) + 1;
    202e:	9801      	ldr	r0, [sp, #4]
    2030:	f002 fb04 	bl	463c <__aeabi_f2iz>
    2034:	4603      	mov	r3, r0
    2036:	3301      	adds	r3, #1
}
    2038:	4618      	mov	r0, r3
    203a:	b003      	add	sp, #12
    203c:	f85d fb04 	ldr.w	pc, [sp], #4

00002040 <write_image>:

void write_image(uint8_t *buffer, char *image, int w, int h) {
    2040:	b510      	push	{r4, lr}
    2042:	b08c      	sub	sp, #48	; 0x30
    2044:	9003      	str	r0, [sp, #12]
    2046:	9102      	str	r1, [sp, #8]
    2048:	9201      	str	r2, [sp, #4]
    204a:	9300      	str	r3, [sp, #0]
	int x = 3;
    204c:	2303      	movs	r3, #3
    204e:	9308      	str	r3, [sp, #32]
	int y = 0;
    2050:	2300      	movs	r3, #0
    2052:	9307      	str	r3, [sp, #28]

	int row = 0;
    2054:	2300      	movs	r3, #0
    2056:	930b      	str	r3, [sp, #44]	; 0x2c
	int col = 0;
    2058:	2300      	movs	r3, #0
    205a:	930a      	str	r3, [sp, #40]	; 0x28
	for(int i = 0; i < (ceil(w/8.0)*h); i++) {
    205c:	2300      	movs	r3, #0
    205e:	9309      	str	r3, [sp, #36]	; 0x24
    2060:	e047      	b.n	20f2 <write_image+0xb2>
		int x_block = x + col;
    2062:	9a08      	ldr	r2, [sp, #32]
    2064:	9b0a      	ldr	r3, [sp, #40]	; 0x28
    2066:	4413      	add	r3, r2
    2068:	9306      	str	r3, [sp, #24]
		int y_block = y + row;
    206a:	9a07      	ldr	r2, [sp, #28]
    206c:	9b0b      	ldr	r3, [sp, #44]	; 0x2c
    206e:	4413      	add	r3, r2
    2070:	9305      	str	r3, [sp, #20]
		if(y_block >= 128) break;
    2072:	9b05      	ldr	r3, [sp, #20]
    2074:	2b7f      	cmp	r3, #127	; 0x7f
    2076:	dc56      	bgt.n	2126 <write_image+0xe6>
		if(x_block >= 16) continue;
    2078:	9b06      	ldr	r3, [sp, #24]
    207a:	2b0f      	cmp	r3, #15
    207c:	dc35      	bgt.n	20ea <write_image+0xaa>
		buffer[2 + x_block + y_block*LINE_WIDTH] = image[i];
    207e:	9b06      	ldr	r3, [sp, #24]
    2080:	1c99      	adds	r1, r3, #2
    2082:	9a05      	ldr	r2, [sp, #20]
    2084:	4613      	mov	r3, r2
    2086:	00db      	lsls	r3, r3, #3
    2088:	4413      	add	r3, r2
    208a:	005b      	lsls	r3, r3, #1
    208c:	440b      	add	r3, r1
    208e:	461a      	mov	r2, r3
    2090:	9b03      	ldr	r3, [sp, #12]
    2092:	4413      	add	r3, r2
    2094:	9a09      	ldr	r2, [sp, #36]	; 0x24
    2096:	9902      	ldr	r1, [sp, #8]
    2098:	440a      	add	r2, r1
    209a:	7812      	ldrb	r2, [r2, #0]
    209c:	701a      	strb	r2, [r3, #0]
		if((i + 1) % (int)(ceil(w/8.0)) == 0) {row++; col = 0;} else {col++;}
    209e:	9b09      	ldr	r3, [sp, #36]	; 0x24
    20a0:	1c5c      	adds	r4, r3, #1
    20a2:	9801      	ldr	r0, [sp, #4]
    20a4:	f001 fe5e 	bl	3d64 <__aeabi_i2d>
    20a8:	f04f 0200 	mov.w	r2, #0
    20ac:	4b20      	ldr	r3, [pc, #128]	; (2130 <write_image+0xf0>)
    20ae:	f001 ffe9 	bl	4084 <__aeabi_ddiv>
    20b2:	4602      	mov	r2, r0
    20b4:	460b      	mov	r3, r1
    20b6:	4610      	mov	r0, r2
    20b8:	4619      	mov	r1, r3
    20ba:	f002 f8eb 	bl	4294 <__aeabi_d2f>
    20be:	4603      	mov	r3, r0
    20c0:	4618      	mov	r0, r3
    20c2:	f7ff ff9d 	bl	2000 <ceil>
    20c6:	4603      	mov	r3, r0
    20c8:	fb94 f2f3 	sdiv	r2, r4, r3
    20cc:	fb03 f302 	mul.w	r3, r3, r2
    20d0:	1ae3      	subs	r3, r4, r3
    20d2:	2b00      	cmp	r3, #0
    20d4:	d105      	bne.n	20e2 <write_image+0xa2>
    20d6:	9b0b      	ldr	r3, [sp, #44]	; 0x2c
    20d8:	3301      	adds	r3, #1
    20da:	930b      	str	r3, [sp, #44]	; 0x2c
    20dc:	2300      	movs	r3, #0
    20de:	930a      	str	r3, [sp, #40]	; 0x28
    20e0:	e004      	b.n	20ec <write_image+0xac>
    20e2:	9b0a      	ldr	r3, [sp, #40]	; 0x28
    20e4:	3301      	adds	r3, #1
    20e6:	930a      	str	r3, [sp, #40]	; 0x28
    20e8:	e000      	b.n	20ec <write_image+0xac>
	int col = 0;
	for(int i = 0; i < (ceil(w/8.0)*h); i++) {
		int x_block = x + col;
		int y_block = y + row;
		if(y_block >= 128) break;
		if(x_block >= 16) continue;
    20ea:	bf00      	nop
	int x = 3;
	int y = 0;

	int row = 0;
	int col = 0;
	for(int i = 0; i < (ceil(w/8.0)*h); i++) {
    20ec:	9b09      	ldr	r3, [sp, #36]	; 0x24
    20ee:	3301      	adds	r3, #1
    20f0:	9309      	str	r3, [sp, #36]	; 0x24
    20f2:	9801      	ldr	r0, [sp, #4]
    20f4:	f001 fe36 	bl	3d64 <__aeabi_i2d>
    20f8:	f04f 0200 	mov.w	r2, #0
    20fc:	4b0c      	ldr	r3, [pc, #48]	; (2130 <write_image+0xf0>)
    20fe:	f001 ffc1 	bl	4084 <__aeabi_ddiv>
    2102:	4603      	mov	r3, r0
    2104:	460c      	mov	r4, r1
    2106:	4618      	mov	r0, r3
    2108:	4621      	mov	r1, r4
    210a:	f002 f8c3 	bl	4294 <__aeabi_d2f>
    210e:	4603      	mov	r3, r0
    2110:	4618      	mov	r0, r3
    2112:	f7ff ff75 	bl	2000 <ceil>
    2116:	4602      	mov	r2, r0
    2118:	9b00      	ldr	r3, [sp, #0]
    211a:	fb03 f202 	mul.w	r2, r3, r2
    211e:	9b09      	ldr	r3, [sp, #36]	; 0x24
    2120:	429a      	cmp	r2, r3
    2122:	dc9e      	bgt.n	2062 <write_image+0x22>
		if(y_block >= 128) break;
		if(x_block >= 16) continue;
		buffer[2 + x_block + y_block*LINE_WIDTH] = image[i];
		if((i + 1) % (int)(ceil(w/8.0)) == 0) {row++; col = 0;} else {col++;}
        }
}
    2124:	e000      	b.n	2128 <write_image+0xe8>
	int row = 0;
	int col = 0;
	for(int i = 0; i < (ceil(w/8.0)*h); i++) {
		int x_block = x + col;
		int y_block = y + row;
		if(y_block >= 128) break;
    2126:	bf00      	nop
		if(x_block >= 16) continue;
		buffer[2 + x_block + y_block*LINE_WIDTH] = image[i];
		if((i + 1) % (int)(ceil(w/8.0)) == 0) {row++; col = 0;} else {col++;}
        }
}
    2128:	bf00      	nop
    212a:	b00c      	add	sp, #48	; 0x30
    212c:	bd10      	pop	{r4, pc}
    212e:	bf00      	nop
    2130:	40200000 	.word	0x40200000

00002134 <Reset_Handler>:
    .align      2
    .globl      Reset_Handler
    .type       Reset_Handler, %function
Reset_Handler:
#ifndef __NO_SYSTEM_INIT
    ldr     r0, =SystemInit
    2134:	4806      	ldr	r0, [pc, #24]	; (2150 <Reset_Handler+0x1c>)
    blx     r0
    2136:	4780      	blx	r0
 *    __data_start__: VMA of start of the section to copy to
 *    __data_end__: VMA of end of the section to copy to
 *
 *  All addresses must be aligned to 4 bytes boundary.
 */
    ldr     r1, =__etext
    2138:	4906      	ldr	r1, [pc, #24]	; (2154 <Reset_Handler+0x20>)
    ldr     r2, =__data_start__
    213a:	4a07      	ldr	r2, [pc, #28]	; (2158 <Reset_Handler+0x24>)
    ldr     r3, =__data_end__
    213c:	4b07      	ldr	r3, [pc, #28]	; (215c <Reset_Handler+0x28>)

.L_loop1:
    cmp     r2, r3
    213e:	429a      	cmp	r2, r3
    ittt    lt
    2140:	bfbe      	ittt	lt
    ldrlt   r0, [r1], #4
    2142:	f851 0b04 	ldrlt.w	r0, [r1], #4
    strlt   r0, [r2], #4
    2146:	f842 0b04 	strlt.w	r0, [r2], #4
    blt     .L_loop1
    214a:	e7f8      	blt.n	213e <Reset_Handler+0xa>
#endif /* __STARTUP_CLEAR_BSS_MULTIPLE || __STARTUP_CLEAR_BSS */

#ifndef __START
#define __START _start
#endif
    bl      __START
    214c:	f7fd fff4 	bl	138 <_mainCRTStartup>
    .align      2
    .globl      Reset_Handler
    .type       Reset_Handler, %function
Reset_Handler:
#ifndef __NO_SYSTEM_INIT
    ldr     r0, =SystemInit
    2150:	000022ad 	.word	0x000022ad
 *    __data_start__: VMA of start of the section to copy to
 *    __data_end__: VMA of end of the section to copy to
 *
 *  All addresses must be aligned to 4 bytes boundary.
 */
    ldr     r1, =__etext
    2154:	0000507c 	.word	0x0000507c
    ldr     r2, =__data_start__
    2158:	20000000 	.word	0x20000000
    ldr     r3, =__data_end__
    215c:	20000654 	.word	0x20000654

00002160 <ACMP0_IRQHandler>:
    .align  1
    .thumb_func
    .weak   Default_Handler
    .type   Default_Handler, %function
Default_Handler:
    b       .
    2160:	e7fe      	b.n	2160 <ACMP0_IRQHandler>
    2162:	bf00      	nop

00002164 <GetProdRev>:
#endif

/* Inline function to get the chip's Production Revision. */
__STATIC_INLINE uint8_t GetProdRev(void)
{
  return ((DEVINFO->PART & _DEVINFO_PART_PROD_REV_MASK)
    2164:	4b03      	ldr	r3, [pc, #12]	; (2174 <GetProdRev+0x10>)
    2166:	6cdb      	ldr	r3, [r3, #76]	; 0x4c
    2168:	f003 437f 	and.w	r3, r3, #4278190080	; 0xff000000
                         >> _DEVINFO_PART_PROD_REV_SHIFT);
    216c:	0e1b      	lsrs	r3, r3, #24
#endif

/* Inline function to get the chip's Production Revision. */
__STATIC_INLINE uint8_t GetProdRev(void)
{
  return ((DEVINFO->PART & _DEVINFO_PART_PROD_REV_MASK)
    216e:	b2db      	uxtb	r3, r3
                         >> _DEVINFO_PART_PROD_REV_SHIFT);
}
    2170:	4618      	mov	r0, r3
    2172:	4770      	bx	lr
    2174:	0fe081b0 	.word	0x0fe081b0

00002178 <SystemCoreClockGet>:
 *
 * @return
 *   The current core clock frequency in Hz.
 ******************************************************************************/
uint32_t SystemCoreClockGet(void)
{
    2178:	b500      	push	{lr}
    217a:	b083      	sub	sp, #12
  uint32_t ret;

  ret = SystemHFClockGet();
    217c:	f000 f816 	bl	21ac <SystemHFClockGet>
    2180:	9001      	str	r0, [sp, #4]
  ret >>= (CMU->HFCORECLKDIV & _CMU_HFCORECLKDIV_HFCORECLKDIV_MASK) >>
    2182:	4b08      	ldr	r3, [pc, #32]	; (21a4 <SystemCoreClockGet+0x2c>)
    2184:	685b      	ldr	r3, [r3, #4]
    2186:	f003 030f 	and.w	r3, r3, #15
    218a:	9a01      	ldr	r2, [sp, #4]
    218c:	fa22 f303 	lsr.w	r3, r2, r3
    2190:	9301      	str	r3, [sp, #4]
          _CMU_HFCORECLKDIV_HFCORECLKDIV_SHIFT;

  /* Keep CMSIS variable up-to-date just in case */
  SystemCoreClock = ret;
    2192:	4a05      	ldr	r2, [pc, #20]	; (21a8 <SystemCoreClockGet+0x30>)
    2194:	9b01      	ldr	r3, [sp, #4]
    2196:	6013      	str	r3, [r2, #0]

  return ret;
    2198:	9b01      	ldr	r3, [sp, #4]
}
    219a:	4618      	mov	r0, r3
    219c:	b003      	add	sp, #12
    219e:	f85d fb04 	ldr.w	pc, [sp], #4
    21a2:	bf00      	nop
    21a4:	400c8000 	.word	0x400c8000
    21a8:	200005e0 	.word	0x200005e0

000021ac <SystemHFClockGet>:
 *
 * @return
 *   The current HFCLK frequency in Hz.
 ******************************************************************************/
uint32_t SystemHFClockGet(void)
{
    21ac:	b500      	push	{lr}
    21ae:	b083      	sub	sp, #12
  uint32_t ret;

  switch (CMU->STATUS & (CMU_STATUS_HFRCOSEL | CMU_STATUS_HFXOSEL |
    21b0:	4b33      	ldr	r3, [pc, #204]	; (2280 <SystemHFClockGet+0xd4>)
    21b2:	6adb      	ldr	r3, [r3, #44]	; 0x2c
    21b4:	f403 5370 	and.w	r3, r3, #15360	; 0x3c00
    21b8:	f5b3 5f80 	cmp.w	r3, #4096	; 0x1000
    21bc:	d00a      	beq.n	21d4 <SystemHFClockGet+0x28>
    21be:	f5b3 5f00 	cmp.w	r3, #8192	; 0x2000
    21c2:	d003      	beq.n	21cc <SystemHFClockGet+0x20>
    21c4:	f5b3 6f00 	cmp.w	r3, #2048	; 0x800
    21c8:	d008      	beq.n	21dc <SystemHFClockGet+0x30>
    21ca:	e00b      	b.n	21e4 <SystemHFClockGet+0x38>
                         CMU_STATUS_LFRCOSEL | CMU_STATUS_LFXOSEL))
  {
    case CMU_STATUS_LFXOSEL:
#if (EFM32_LFXO_FREQ > 0)
      ret = SystemLFXOClock;
    21cc:	4b2d      	ldr	r3, [pc, #180]	; (2284 <SystemHFClockGet+0xd8>)
    21ce:	681b      	ldr	r3, [r3, #0]
    21d0:	9301      	str	r3, [sp, #4]
#else
      /* We should not get here, since core should not be clocked. May */
      /* be caused by a misconfiguration though. */
      ret = 0;
#endif
      break;
    21d2:	e047      	b.n	2264 <SystemHFClockGet+0xb8>

    case CMU_STATUS_LFRCOSEL:
      ret = EFM32_LFRCO_FREQ;
    21d4:	f44f 4300 	mov.w	r3, #32768	; 0x8000
    21d8:	9301      	str	r3, [sp, #4]
      break;
    21da:	e043      	b.n	2264 <SystemHFClockGet+0xb8>

    case CMU_STATUS_HFXOSEL:
#if (EFM32_HFXO_FREQ > 0)
      ret = SystemHFXOClock;
    21dc:	4b2a      	ldr	r3, [pc, #168]	; (2288 <SystemHFClockGet+0xdc>)
    21de:	681b      	ldr	r3, [r3, #0]
    21e0:	9301      	str	r3, [sp, #4]
#else
      /* We should not get here, since core should not be clocked. May */
      /* be caused by a misconfiguration though. */
      ret = 0;
#endif
      break;
    21e2:	e03f      	b.n	2264 <SystemHFClockGet+0xb8>

    default: /* CMU_STATUS_HFRCOSEL */
      switch (CMU->HFRCOCTRL & _CMU_HFRCOCTRL_BAND_MASK)
    21e4:	4b26      	ldr	r3, [pc, #152]	; (2280 <SystemHFClockGet+0xd4>)
    21e6:	68db      	ldr	r3, [r3, #12]
    21e8:	f403 63e0 	and.w	r3, r3, #1792	; 0x700
    21ec:	f5b3 7f00 	cmp.w	r3, #512	; 0x200
    21f0:	d01b      	beq.n	222a <SystemHFClockGet+0x7e>
    21f2:	f5b3 7f00 	cmp.w	r3, #512	; 0x200
    21f6:	d805      	bhi.n	2204 <SystemHFClockGet+0x58>
    21f8:	2b00      	cmp	r3, #0
    21fa:	d024      	beq.n	2246 <SystemHFClockGet+0x9a>
    21fc:	f5b3 7f80 	cmp.w	r3, #256	; 0x100
    2200:	d016      	beq.n	2230 <SystemHFClockGet+0x84>
    2202:	e02b      	b.n	225c <SystemHFClockGet+0xb0>
    2204:	f5b3 6f80 	cmp.w	r3, #1024	; 0x400
    2208:	d009      	beq.n	221e <SystemHFClockGet+0x72>
    220a:	f5b3 6fa0 	cmp.w	r3, #1280	; 0x500
    220e:	d003      	beq.n	2218 <SystemHFClockGet+0x6c>
    2210:	f5b3 7f40 	cmp.w	r3, #768	; 0x300
    2214:	d006      	beq.n	2224 <SystemHFClockGet+0x78>
    2216:	e021      	b.n	225c <SystemHFClockGet+0xb0>
      {
      case CMU_HFRCOCTRL_BAND_28MHZ:
        ret = 28000000;
    2218:	4b1c      	ldr	r3, [pc, #112]	; (228c <SystemHFClockGet+0xe0>)
    221a:	9301      	str	r3, [sp, #4]
        break;
    221c:	e021      	b.n	2262 <SystemHFClockGet+0xb6>

      case CMU_HFRCOCTRL_BAND_21MHZ:
        ret = 21000000;
    221e:	4b1c      	ldr	r3, [pc, #112]	; (2290 <SystemHFClockGet+0xe4>)
    2220:	9301      	str	r3, [sp, #4]
        break;
    2222:	e01e      	b.n	2262 <SystemHFClockGet+0xb6>

      case CMU_HFRCOCTRL_BAND_14MHZ:
        ret = 14000000;
    2224:	4b1b      	ldr	r3, [pc, #108]	; (2294 <SystemHFClockGet+0xe8>)
    2226:	9301      	str	r3, [sp, #4]
        break;
    2228:	e01b      	b.n	2262 <SystemHFClockGet+0xb6>

      case CMU_HFRCOCTRL_BAND_11MHZ:
        ret = 11000000;
    222a:	4b1b      	ldr	r3, [pc, #108]	; (2298 <SystemHFClockGet+0xec>)
    222c:	9301      	str	r3, [sp, #4]
        break;
    222e:	e018      	b.n	2262 <SystemHFClockGet+0xb6>

      case CMU_HFRCOCTRL_BAND_7MHZ:
        if ( GetProdRev() >= 19 )
    2230:	f7ff ff98 	bl	2164 <GetProdRev>
    2234:	4603      	mov	r3, r0
    2236:	2b12      	cmp	r3, #18
    2238:	d902      	bls.n	2240 <SystemHFClockGet+0x94>
          ret = 6600000;
    223a:	4b18      	ldr	r3, [pc, #96]	; (229c <SystemHFClockGet+0xf0>)
    223c:	9301      	str	r3, [sp, #4]
        else
          ret = 7000000;
        break;
    223e:	e010      	b.n	2262 <SystemHFClockGet+0xb6>

      case CMU_HFRCOCTRL_BAND_7MHZ:
        if ( GetProdRev() >= 19 )
          ret = 6600000;
        else
          ret = 7000000;
    2240:	4b17      	ldr	r3, [pc, #92]	; (22a0 <SystemHFClockGet+0xf4>)
    2242:	9301      	str	r3, [sp, #4]
        break;
    2244:	e00d      	b.n	2262 <SystemHFClockGet+0xb6>

      case CMU_HFRCOCTRL_BAND_1MHZ:
        if ( GetProdRev() >= 19 )
    2246:	f7ff ff8d 	bl	2164 <GetProdRev>
    224a:	4603      	mov	r3, r0
    224c:	2b12      	cmp	r3, #18
    224e:	d902      	bls.n	2256 <SystemHFClockGet+0xaa>
          ret = 1200000;
    2250:	4b14      	ldr	r3, [pc, #80]	; (22a4 <SystemHFClockGet+0xf8>)
    2252:	9301      	str	r3, [sp, #4]
        else
          ret = 1000000;
        break;
    2254:	e005      	b.n	2262 <SystemHFClockGet+0xb6>

      case CMU_HFRCOCTRL_BAND_1MHZ:
        if ( GetProdRev() >= 19 )
          ret = 1200000;
        else
          ret = 1000000;
    2256:	4b14      	ldr	r3, [pc, #80]	; (22a8 <SystemHFClockGet+0xfc>)
    2258:	9301      	str	r3, [sp, #4]
        break;
    225a:	e002      	b.n	2262 <SystemHFClockGet+0xb6>

      default:
        ret = 0;
    225c:	2300      	movs	r3, #0
    225e:	9301      	str	r3, [sp, #4]
        break;
    2260:	bf00      	nop
      }
      break;
    2262:	bf00      	nop
  }

  return ret / (1U + ((CMU->CTRL & _CMU_CTRL_HFCLKDIV_MASK)
    2264:	4b06      	ldr	r3, [pc, #24]	; (2280 <SystemHFClockGet+0xd4>)
    2266:	681b      	ldr	r3, [r3, #0]
    2268:	f403 33e0 	and.w	r3, r3, #114688	; 0x1c000
                      >> _CMU_CTRL_HFCLKDIV_SHIFT));
    226c:	0b9b      	lsrs	r3, r3, #14
        break;
      }
      break;
  }

  return ret / (1U + ((CMU->CTRL & _CMU_CTRL_HFCLKDIV_MASK)
    226e:	3301      	adds	r3, #1
    2270:	9a01      	ldr	r2, [sp, #4]
    2272:	fbb2 f3f3 	udiv	r3, r2, r3
                      >> _CMU_CTRL_HFCLKDIV_SHIFT));
}
    2276:	4618      	mov	r0, r3
    2278:	b003      	add	sp, #12
    227a:	f85d fb04 	ldr.w	pc, [sp], #4
    227e:	bf00      	nop
    2280:	400c8000 	.word	0x400c8000
    2284:	200005dc 	.word	0x200005dc
    2288:	200005d8 	.word	0x200005d8
    228c:	01ab3f00 	.word	0x01ab3f00
    2290:	01406f40 	.word	0x01406f40
    2294:	00d59f80 	.word	0x00d59f80
    2298:	00a7d8c0 	.word	0x00a7d8c0
    229c:	0064b540 	.word	0x0064b540
    22a0:	006acfc0 	.word	0x006acfc0
    22a4:	00124f80 	.word	0x00124f80
    22a8:	000f4240 	.word	0x000f4240

000022ac <SystemInit>:
 *   and any data has been initialized. For this reason, it cannot do any
 *   initialization of variables etc.
 *****************************************************************************/
void SystemInit(void)
{
}
    22ac:	bf00      	nop
    22ae:	4770      	bx	lr

000022b0 <SystemLFRCOClockGet>:
uint32_t SystemLFRCOClockGet(void)
{
  /* Currently we assume that this frequency is properly tuned during */
  /* manufacturing and is not changed after reset. If future requirements */
  /* for re-tuning by user, we can add support for that. */
  return EFM32_LFRCO_FREQ;
    22b0:	f44f 4300 	mov.w	r3, #32768	; 0x8000
}
    22b4:	4618      	mov	r0, r3
    22b6:	4770      	bx	lr

000022b8 <SystemULFRCOClockGet>:
 *   ULFRCO frequency in Hz.
 *****************************************************************************/
uint32_t SystemULFRCOClockGet(void)
{
  /* The ULFRCO frequency is not tuned, and can be very inaccurate */
  return EFM32_ULFRCO_FREQ;
    22b8:	f44f 737a 	mov.w	r3, #1000	; 0x3e8
}
    22bc:	4618      	mov	r0, r3
    22be:	4770      	bx	lr

000022c0 <SystemLFXOClockGet>:
 *****************************************************************************/
uint32_t SystemLFXOClockGet(void)
{
  /* External crystal oscillator present? */
#if (EFM32_LFXO_FREQ > 0)
  return SystemLFXOClock;
    22c0:	4b01      	ldr	r3, [pc, #4]	; (22c8 <SystemLFXOClockGet+0x8>)
    22c2:	681b      	ldr	r3, [r3, #0]
#else
  return 0;
#endif
}
    22c4:	4618      	mov	r0, r3
    22c6:	4770      	bx	lr
    22c8:	200005dc 	.word	0x200005dc

000022cc <BUS_RegBitWrite>:
 * @param[in] val Value to set bit to, 0 or 1
 ******************************************************************************/
__STATIC_INLINE void BUS_RegBitWrite(volatile uint32_t *addr,
                                     unsigned int bit,
                                     unsigned int val)
{
    22cc:	b086      	sub	sp, #24
    22ce:	9003      	str	r0, [sp, #12]
    22d0:	9102      	str	r1, [sp, #8]
    22d2:	9201      	str	r2, [sp, #4]
#if defined(BITBAND_PER_BASE)
  uint32_t aliasAddr =
    BITBAND_PER_BASE + (((uint32_t)addr - PER_MEM_BASE) * 32) + (bit * 4);
    22d4:	9b03      	ldr	r3, [sp, #12]
    22d6:	f103 7304 	add.w	r3, r3, #34603008	; 0x2100000
    22da:	00da      	lsls	r2, r3, #3
    22dc:	9b02      	ldr	r3, [sp, #8]
    22de:	4413      	add	r3, r2
__STATIC_INLINE void BUS_RegBitWrite(volatile uint32_t *addr,
                                     unsigned int bit,
                                     unsigned int val)
{
#if defined(BITBAND_PER_BASE)
  uint32_t aliasAddr =
    22e0:	009b      	lsls	r3, r3, #2
    22e2:	9305      	str	r3, [sp, #20]
    BITBAND_PER_BASE + (((uint32_t)addr - PER_MEM_BASE) * 32) + (bit * 4);

  *(volatile uint32_t *)aliasAddr = (uint32_t)val;
    22e4:	9b05      	ldr	r3, [sp, #20]
    22e6:	9a01      	ldr	r2, [sp, #4]
    22e8:	601a      	str	r2, [r3, #0]
  uint32_t tmp = *addr;

  /* Make sure val is not more than 1, because we only want to set one bit. */
  *addr = (tmp & ~(1 << bit)) | ((val & 1) << bit);
#endif
}
    22ea:	bf00      	nop
    22ec:	b006      	add	sp, #24
    22ee:	4770      	bx	lr

000022f0 <BUS_RegBitRead>:
 * @return
 *     The requested bit shifted to bit position 0 in the return value
 ******************************************************************************/
__STATIC_INLINE unsigned int BUS_RegBitRead(volatile const uint32_t *addr,
                                            unsigned int bit)
{
    22f0:	b084      	sub	sp, #16
    22f2:	9001      	str	r0, [sp, #4]
    22f4:	9100      	str	r1, [sp, #0]
#if defined(BITBAND_PER_BASE)
  uint32_t aliasAddr =
    BITBAND_PER_BASE + (((uint32_t)addr - PER_MEM_BASE) * 32) + (bit * 4);
    22f6:	9b01      	ldr	r3, [sp, #4]
    22f8:	f103 7304 	add.w	r3, r3, #34603008	; 0x2100000
    22fc:	00da      	lsls	r2, r3, #3
    22fe:	9b00      	ldr	r3, [sp, #0]
    2300:	4413      	add	r3, r2
 ******************************************************************************/
__STATIC_INLINE unsigned int BUS_RegBitRead(volatile const uint32_t *addr,
                                            unsigned int bit)
{
#if defined(BITBAND_PER_BASE)
  uint32_t aliasAddr =
    2302:	009b      	lsls	r3, r3, #2
    2304:	9303      	str	r3, [sp, #12]
    BITBAND_PER_BASE + (((uint32_t)addr - PER_MEM_BASE) * 32) + (bit * 4);

  return *(volatile uint32_t *)aliasAddr;
    2306:	9b03      	ldr	r3, [sp, #12]
    2308:	681b      	ldr	r3, [r3, #0]
#else
  return ((*addr) >> bit) & 1;
#endif
}
    230a:	4618      	mov	r0, r3
    230c:	b004      	add	sp, #16
    230e:	4770      	bx	lr

00002310 <CMU_DivToLog2>:
 *
 * @return
 *   Logarithm of 2, as used by fixed prescalers.
 ******************************************************************************/
__STATIC_INLINE uint32_t CMU_DivToLog2(CMU_ClkDiv_TypeDef div)
{
    2310:	b084      	sub	sp, #16
    2312:	9001      	str	r0, [sp, #4]
  uint32_t log2;

  /* Fixed 2^n prescalers take argument of 32768 or less. */
  EFM_ASSERT((div > 0U) && (div <= 32768U));
    2314:	9b01      	ldr	r3, [sp, #4]
    2316:	2b00      	cmp	r3, #0
    2318:	d003      	beq.n	2322 <CMU_DivToLog2+0x12>
    231a:	9b01      	ldr	r3, [sp, #4]
    231c:	f5b3 4f00 	cmp.w	r3, #32768	; 0x8000
    2320:	bf00      	nop

  /* Count leading zeroes and "reverse" result */
  log2 = (31U - __CLZ(div));
    2322:	9b01      	ldr	r3, [sp, #4]
    2324:	fab3 f383 	clz	r3, r3
    2328:	f1c3 031f 	rsb	r3, r3, #31
    232c:	9303      	str	r3, [sp, #12]

  return log2;
    232e:	9b03      	ldr	r3, [sp, #12]
}
    2330:	4618      	mov	r0, r3
    2332:	b004      	add	sp, #16
    2334:	4770      	bx	lr
    2336:	bf00      	nop

00002338 <SYSTEM_GetProdRev>:
 * @return
 *   Production revision for this part.
 ******************************************************************************/
__STATIC_INLINE uint8_t SYSTEM_GetProdRev(void)
{
  return (DEVINFO->PART & _DEVINFO_PART_PROD_REV_MASK)
    2338:	4b03      	ldr	r3, [pc, #12]	; (2348 <SYSTEM_GetProdRev+0x10>)
    233a:	6cdb      	ldr	r3, [r3, #76]	; 0x4c
    233c:	f003 437f 	and.w	r3, r3, #4278190080	; 0xff000000
         >> _DEVINFO_PART_PROD_REV_SHIFT;
    2340:	0e1b      	lsrs	r3, r3, #24
 * @return
 *   Production revision for this part.
 ******************************************************************************/
__STATIC_INLINE uint8_t SYSTEM_GetProdRev(void)
{
  return (DEVINFO->PART & _DEVINFO_PART_PROD_REV_MASK)
    2342:	b2db      	uxtb	r3, r3
         >> _DEVINFO_PART_PROD_REV_SHIFT;
}
    2344:	4618      	mov	r0, r3
    2346:	4770      	bx	lr
    2348:	0fe081b0 	.word	0x0fe081b0

0000234c <SYSTEM_GetFamily>:
 *   The family identifier of the MCU.
 ******************************************************************************/
__STATIC_INLINE SYSTEM_PartFamily_TypeDef SYSTEM_GetFamily(void)
{
  return (SYSTEM_PartFamily_TypeDef)
         ((DEVINFO->PART & _DEVINFO_PART_DEVICE_FAMILY_MASK)
    234c:	4b03      	ldr	r3, [pc, #12]	; (235c <SYSTEM_GetFamily+0x10>)
    234e:	6cdb      	ldr	r3, [r3, #76]	; 0x4c
    2350:	f403 037f 	and.w	r3, r3, #16711680	; 0xff0000
          >> _DEVINFO_PART_DEVICE_FAMILY_SHIFT);
    2354:	0c1b      	lsrs	r3, r3, #16
 * @return
 *   The family identifier of the MCU.
 ******************************************************************************/
__STATIC_INLINE SYSTEM_PartFamily_TypeDef SYSTEM_GetFamily(void)
{
  return (SYSTEM_PartFamily_TypeDef)
    2356:	b2db      	uxtb	r3, r3
         ((DEVINFO->PART & _DEVINFO_PART_DEVICE_FAMILY_MASK)
          >> _DEVINFO_PART_DEVICE_FAMILY_SHIFT);
}
    2358:	4618      	mov	r0, r3
    235a:	4770      	bx	lr
    235c:	0fe081b0 	.word	0x0fe081b0

00002360 <maxFreqHfle>:
/***************************************************************************//**
 * @brief
 *   Return max allowed frequency for low energy peripherals.
 ******************************************************************************/
static uint32_t maxFreqHfle(void)
{
    2360:	b500      	push	{lr}
    2362:	b083      	sub	sp, #12
  uint16_t majorMinorRev;

  switch (SYSTEM_GetFamily()) {
    2364:	f7ff fff2 	bl	234c <SYSTEM_GetFamily>
    2368:	4603      	mov	r3, r0
    236a:	2b4a      	cmp	r3, #74	; 0x4a
    236c:	d004      	beq.n	2378 <maxFreqHfle+0x18>
    236e:	2b79      	cmp	r3, #121	; 0x79
    2370:	d002      	beq.n	2378 <maxFreqHfle+0x18>
    2372:	2b48      	cmp	r3, #72	; 0x48
    2374:	d027      	beq.n	23c6 <maxFreqHfle+0x66>
    2376:	e028      	b.n	23ca <maxFreqHfle+0x6a>
    case systemPartFamilyEfm32Leopard:
    case systemPartFamilyEzr32Leopard:
      /* CHIP MAJOR bit [5:0] */
      majorMinorRev = (((ROMTABLE->PID0 & _ROMTABLE_PID0_REVMAJOR_MASK)
    2378:	4b16      	ldr	r3, [pc, #88]	; (23d4 <maxFreqHfle+0x74>)
    237a:	691b      	ldr	r3, [r3, #16]
    237c:	b29b      	uxth	r3, r3
    237e:	f003 033f 	and.w	r3, r3, #63	; 0x3f
    2382:	b29b      	uxth	r3, r3
    2384:	021b      	lsls	r3, r3, #8
    2386:	f8ad 3006 	strh.w	r3, [sp, #6]
                        >> _ROMTABLE_PID0_REVMAJOR_SHIFT) << 8);
      /* CHIP MINOR bit [7:4] */
      majorMinorRev |= (((ROMTABLE->PID2 & _ROMTABLE_PID2_REVMINORMSB_MASK)
    238a:	4b12      	ldr	r3, [pc, #72]	; (23d4 <maxFreqHfle+0x74>)
    238c:	699b      	ldr	r3, [r3, #24]
                         >> _ROMTABLE_PID2_REVMINORMSB_SHIFT) << 4);
    238e:	f003 03f0 	and.w	r3, r3, #240	; 0xf0
    case systemPartFamilyEzr32Leopard:
      /* CHIP MAJOR bit [5:0] */
      majorMinorRev = (((ROMTABLE->PID0 & _ROMTABLE_PID0_REVMAJOR_MASK)
                        >> _ROMTABLE_PID0_REVMAJOR_SHIFT) << 8);
      /* CHIP MINOR bit [7:4] */
      majorMinorRev |= (((ROMTABLE->PID2 & _ROMTABLE_PID2_REVMINORMSB_MASK)
    2392:	b29a      	uxth	r2, r3
    2394:	f8bd 3006 	ldrh.w	r3, [sp, #6]
    2398:	4313      	orrs	r3, r2
    239a:	f8ad 3006 	strh.w	r3, [sp, #6]
                         >> _ROMTABLE_PID2_REVMINORMSB_SHIFT) << 4);
      /* CHIP MINOR bit [3:0] */
      majorMinorRev |=  ((ROMTABLE->PID3 & _ROMTABLE_PID3_REVMINORLSB_MASK)
    239e:	4b0d      	ldr	r3, [pc, #52]	; (23d4 <maxFreqHfle+0x74>)
    23a0:	69db      	ldr	r3, [r3, #28]
    23a2:	f003 03f0 	and.w	r3, r3, #240	; 0xf0
                         >> _ROMTABLE_PID3_REVMINORLSB_SHIFT);
    23a6:	091b      	lsrs	r3, r3, #4
                        >> _ROMTABLE_PID0_REVMAJOR_SHIFT) << 8);
      /* CHIP MINOR bit [7:4] */
      majorMinorRev |= (((ROMTABLE->PID2 & _ROMTABLE_PID2_REVMINORMSB_MASK)
                         >> _ROMTABLE_PID2_REVMINORMSB_SHIFT) << 4);
      /* CHIP MINOR bit [3:0] */
      majorMinorRev |=  ((ROMTABLE->PID3 & _ROMTABLE_PID3_REVMINORLSB_MASK)
    23a8:	b29a      	uxth	r2, r3
    23aa:	f8bd 3006 	ldrh.w	r3, [sp, #6]
    23ae:	4313      	orrs	r3, r2
    23b0:	f8ad 3006 	strh.w	r3, [sp, #6]
                         >> _ROMTABLE_PID3_REVMINORLSB_SHIFT);

      if (majorMinorRev >= 0x0204) {
    23b4:	f8bd 3006 	ldrh.w	r3, [sp, #6]
    23b8:	f5b3 7f01 	cmp.w	r3, #516	; 0x204
    23bc:	d301      	bcc.n	23c2 <maxFreqHfle+0x62>
        return 24000000;
    23be:	4b06      	ldr	r3, [pc, #24]	; (23d8 <maxFreqHfle+0x78>)
    23c0:	e004      	b.n	23cc <maxFreqHfle+0x6c>
      } else {
        return 32000000;
    23c2:	4b06      	ldr	r3, [pc, #24]	; (23dc <maxFreqHfle+0x7c>)
    23c4:	e002      	b.n	23cc <maxFreqHfle+0x6c>
      }

    case systemPartFamilyEfm32Giant:
      return 32000000;
    23c6:	4b05      	ldr	r3, [pc, #20]	; (23dc <maxFreqHfle+0x7c>)
    23c8:	e000      	b.n	23cc <maxFreqHfle+0x6c>

    default:
      /* Invalid device family. */
      EFM_ASSERT(false);
      return 0;
    23ca:	2300      	movs	r3, #0
  }
}
    23cc:	4618      	mov	r0, r3
    23ce:	b003      	add	sp, #12
    23d0:	f85d fb04 	ldr.w	pc, [sp], #4
    23d4:	e00fffd0 	.word	0xe00fffd0
    23d8:	016e3600 	.word	0x016e3600
    23dc:	01e84800 	.word	0x01e84800

000023e0 <setHfLeConfig>:
 *
 * @param[in] maxLeFreq
 *   Max LE frequency
 ******************************************************************************/
static void setHfLeConfig(uint32_t hfFreq)
{
    23e0:	b500      	push	{lr}
    23e2:	b085      	sub	sp, #20
    23e4:	9001      	str	r0, [sp, #4]

  /* - Enable HFLE wait-state if to allow access to LE peripherals when HFBUSCLK is
       above maxLeFreq.
     - Set HFLE prescaler. Allowed HFLE clock frequency is maxLeFreq. */

  hfleWs = 1;
    23e6:	2301      	movs	r3, #1
    23e8:	9303      	str	r3, [sp, #12]
  if (hfFreq <= CMU_MAX_FREQ_HFLE) {
    23ea:	f7ff ffb9 	bl	2360 <maxFreqHfle>
    23ee:	4602      	mov	r2, r0
    23f0:	9b01      	ldr	r3, [sp, #4]
    23f2:	429a      	cmp	r2, r3
    23f4:	d304      	bcc.n	2400 <setHfLeConfig+0x20>
    hfleWs = 0;
    23f6:	2300      	movs	r3, #0
    23f8:	9303      	str	r3, [sp, #12]
    hflePresc = 0;
    23fa:	2300      	movs	r3, #0
    23fc:	9302      	str	r3, [sp, #8]
    23fe:	e00b      	b.n	2418 <setHfLeConfig+0x38>
  } else if (hfFreq <= (2 * CMU_MAX_FREQ_HFLE)) {
    2400:	f7ff ffae 	bl	2360 <maxFreqHfle>
    2404:	4603      	mov	r3, r0
    2406:	005a      	lsls	r2, r3, #1
    2408:	9b01      	ldr	r3, [sp, #4]
    240a:	429a      	cmp	r2, r3
    240c:	d302      	bcc.n	2414 <setHfLeConfig+0x34>
    hflePresc = 1;
    240e:	2301      	movs	r3, #1
    2410:	9302      	str	r3, [sp, #8]
    2412:	e001      	b.n	2418 <setHfLeConfig+0x38>
  } else {
    hflePresc = 2;
    2414:	2302      	movs	r3, #2
    2416:	9302      	str	r3, [sp, #8]
  }
  BUS_RegBitWrite(&CMU->CTRL, _GENERIC_HFLE_WS_SHIFT, hfleWs);
    2418:	9a03      	ldr	r2, [sp, #12]
    241a:	211e      	movs	r1, #30
    241c:	4807      	ldr	r0, [pc, #28]	; (243c <setHfLeConfig+0x5c>)
    241e:	f7ff ff55 	bl	22cc <BUS_RegBitWrite>
  GENERIC_HFLE_PRESC_REG = (GENERIC_HFLE_PRESC_REG & ~_GENERIC_HFLE_PRESC_MASK)
    2422:	4906      	ldr	r1, [pc, #24]	; (243c <setHfLeConfig+0x5c>)
    2424:	4b05      	ldr	r3, [pc, #20]	; (243c <setHfLeConfig+0x5c>)
    2426:	685b      	ldr	r3, [r3, #4]
    2428:	f423 7280 	bic.w	r2, r3, #256	; 0x100
                           | (hflePresc << _GENERIC_HFLE_PRESC_SHIFT);
    242c:	9b02      	ldr	r3, [sp, #8]
    242e:	021b      	lsls	r3, r3, #8
    2430:	4313      	orrs	r3, r2
    hflePresc = 1;
  } else {
    hflePresc = 2;
  }
  BUS_RegBitWrite(&CMU->CTRL, _GENERIC_HFLE_WS_SHIFT, hfleWs);
  GENERIC_HFLE_PRESC_REG = (GENERIC_HFLE_PRESC_REG & ~_GENERIC_HFLE_PRESC_MASK)
    2432:	604b      	str	r3, [r1, #4]
                           | (hflePresc << _GENERIC_HFLE_PRESC_SHIFT);
}
    2434:	bf00      	nop
    2436:	b005      	add	sp, #20
    2438:	f85d fb04 	ldr.w	pc, [sp], #4
    243c:	400c8000 	.word	0x400c8000

00002440 <getHfLeConfig>:
 *
 * @return
 *   Current wait-state configuration.
 ******************************************************************************/
static uint32_t getHfLeConfig(void)
{
    2440:	b500      	push	{lr}
    2442:	b083      	sub	sp, #12
  uint32_t ws = BUS_RegBitRead(&CMU->CTRL, _GENERIC_HFLE_WS_SHIFT);
    2444:	211e      	movs	r1, #30
    2446:	4804      	ldr	r0, [pc, #16]	; (2458 <getHfLeConfig+0x18>)
    2448:	f7ff ff52 	bl	22f0 <BUS_RegBitRead>
    244c:	9001      	str	r0, [sp, #4]
  return ws;
    244e:	9b01      	ldr	r3, [sp, #4]
}
    2450:	4618      	mov	r0, r3
    2452:	b003      	add	sp, #12
    2454:	f85d fb04 	ldr.w	pc, [sp], #4
    2458:	400c8000 	.word	0x400c8000

0000245c <auxClkGet>:
 *
 * @return
 *   AUX Frequency in Hz
 ******************************************************************************/
static uint32_t auxClkGet(void)
{
    245c:	b500      	push	{lr}
    245e:	b083      	sub	sp, #12
#if defined(_CMU_AUXHFRCOCTRL_FREQRANGE_MASK)
  ret = auxHfrcoFreq;

#elif defined(_CMU_AUXHFRCOCTRL_BAND_MASK)
  /* All series 0 families except EFM32G */
  switch (CMU->AUXHFRCOCTRL & _CMU_AUXHFRCOCTRL_BAND_MASK) {
    2460:	4b21      	ldr	r3, [pc, #132]	; (24e8 <auxClkGet+0x8c>)
    2462:	695b      	ldr	r3, [r3, #20]
    2464:	f403 63e0 	and.w	r3, r3, #1792	; 0x700
    2468:	f5b3 7f00 	cmp.w	r3, #512	; 0x200
    246c:	d01c      	beq.n	24a8 <auxClkGet+0x4c>
    246e:	f5b3 7f00 	cmp.w	r3, #512	; 0x200
    2472:	d805      	bhi.n	2480 <auxClkGet+0x24>
    2474:	2b00      	cmp	r3, #0
    2476:	d025      	beq.n	24c4 <auxClkGet+0x68>
    2478:	f5b3 7f80 	cmp.w	r3, #256	; 0x100
    247c:	d01f      	beq.n	24be <auxClkGet+0x62>
    247e:	e02a      	b.n	24d6 <auxClkGet+0x7a>
    2480:	f5b3 6fc0 	cmp.w	r3, #1536	; 0x600
    2484:	d024      	beq.n	24d0 <auxClkGet+0x74>
    2486:	f5b3 6fe0 	cmp.w	r3, #1792	; 0x700
    248a:	d01e      	beq.n	24ca <auxClkGet+0x6e>
    248c:	f5b3 7f40 	cmp.w	r3, #768	; 0x300
    2490:	d121      	bne.n	24d6 <auxClkGet+0x7a>
    case CMU_AUXHFRCOCTRL_BAND_1MHZ:
      if ( SYSTEM_GetProdRev() >= 19 ) {
    2492:	f7ff ff51 	bl	2338 <SYSTEM_GetProdRev>
    2496:	4603      	mov	r3, r0
    2498:	2b12      	cmp	r3, #18
    249a:	d902      	bls.n	24a2 <auxClkGet+0x46>
        ret = 1200000;
    249c:	4b13      	ldr	r3, [pc, #76]	; (24ec <auxClkGet+0x90>)
    249e:	9301      	str	r3, [sp, #4]
      } else {
        ret = 1000000;
      }
      break;
    24a0:	e01c      	b.n	24dc <auxClkGet+0x80>
  switch (CMU->AUXHFRCOCTRL & _CMU_AUXHFRCOCTRL_BAND_MASK) {
    case CMU_AUXHFRCOCTRL_BAND_1MHZ:
      if ( SYSTEM_GetProdRev() >= 19 ) {
        ret = 1200000;
      } else {
        ret = 1000000;
    24a2:	4b13      	ldr	r3, [pc, #76]	; (24f0 <auxClkGet+0x94>)
    24a4:	9301      	str	r3, [sp, #4]
      }
      break;
    24a6:	e019      	b.n	24dc <auxClkGet+0x80>

    case CMU_AUXHFRCOCTRL_BAND_7MHZ:
      if ( SYSTEM_GetProdRev() >= 19 ) {
    24a8:	f7ff ff46 	bl	2338 <SYSTEM_GetProdRev>
    24ac:	4603      	mov	r3, r0
    24ae:	2b12      	cmp	r3, #18
    24b0:	d902      	bls.n	24b8 <auxClkGet+0x5c>
        ret = 6600000;
    24b2:	4b10      	ldr	r3, [pc, #64]	; (24f4 <auxClkGet+0x98>)
    24b4:	9301      	str	r3, [sp, #4]
      } else {
        ret = 7000000;
      }
      break;
    24b6:	e011      	b.n	24dc <auxClkGet+0x80>

    case CMU_AUXHFRCOCTRL_BAND_7MHZ:
      if ( SYSTEM_GetProdRev() >= 19 ) {
        ret = 6600000;
      } else {
        ret = 7000000;
    24b8:	4b0f      	ldr	r3, [pc, #60]	; (24f8 <auxClkGet+0x9c>)
    24ba:	9301      	str	r3, [sp, #4]
      }
      break;
    24bc:	e00e      	b.n	24dc <auxClkGet+0x80>

    case CMU_AUXHFRCOCTRL_BAND_11MHZ:
      ret = 11000000;
    24be:	4b0f      	ldr	r3, [pc, #60]	; (24fc <auxClkGet+0xa0>)
    24c0:	9301      	str	r3, [sp, #4]
      break;
    24c2:	e00b      	b.n	24dc <auxClkGet+0x80>

    case CMU_AUXHFRCOCTRL_BAND_14MHZ:
      ret = 14000000;
    24c4:	4b0e      	ldr	r3, [pc, #56]	; (2500 <auxClkGet+0xa4>)
    24c6:	9301      	str	r3, [sp, #4]
      break;
    24c8:	e008      	b.n	24dc <auxClkGet+0x80>

    case CMU_AUXHFRCOCTRL_BAND_21MHZ:
      ret = 21000000;
    24ca:	4b0e      	ldr	r3, [pc, #56]	; (2504 <auxClkGet+0xa8>)
    24cc:	9301      	str	r3, [sp, #4]
      break;
    24ce:	e005      	b.n	24dc <auxClkGet+0x80>

#if defined(_CMU_AUXHFRCOCTRL_BAND_28MHZ)
    case CMU_AUXHFRCOCTRL_BAND_28MHZ:
      ret = 28000000;
    24d0:	4b0d      	ldr	r3, [pc, #52]	; (2508 <auxClkGet+0xac>)
    24d2:	9301      	str	r3, [sp, #4]
      break;
    24d4:	e002      	b.n	24dc <auxClkGet+0x80>
#endif

    default:
      EFM_ASSERT(0);
      ret = 0;
    24d6:	2300      	movs	r3, #0
    24d8:	9301      	str	r3, [sp, #4]
      break;
    24da:	bf00      	nop
  /* Gecko has a fixed 14Mhz AUXHFRCO clock */
  ret = 14000000;

#endif

  return ret;
    24dc:	9b01      	ldr	r3, [sp, #4]
}
    24de:	4618      	mov	r0, r3
    24e0:	b003      	add	sp, #12
    24e2:	f85d fb04 	ldr.w	pc, [sp], #4
    24e6:	bf00      	nop
    24e8:	400c8000 	.word	0x400c8000
    24ec:	00124f80 	.word	0x00124f80
    24f0:	000f4240 	.word	0x000f4240
    24f4:	0064b540 	.word	0x0064b540
    24f8:	006acfc0 	.word	0x006acfc0
    24fc:	00a7d8c0 	.word	0x00a7d8c0
    2500:	00d59f80 	.word	0x00d59f80
    2504:	01406f40 	.word	0x01406f40
    2508:	01ab3f00 	.word	0x01ab3f00

0000250c <dbgClkGet>:
 *
 * @return
 *   Debug Trace frequency in Hz
 ******************************************************************************/
static uint32_t dbgClkGet(void)
{
    250c:	b500      	push	{lr}
    250e:	b083      	sub	sp, #12
  uint32_t ret;
  CMU_Select_TypeDef clk;

  /* Get selected clock source */
  clk = CMU_ClockSelectGet(cmuClock_DBG);
    2510:	480d      	ldr	r0, [pc, #52]	; (2548 <dbgClkGet+0x3c>)
    2512:	f000 fa1b 	bl	294c <CMU_ClockSelectGet>
    2516:	4603      	mov	r3, r0
    2518:	f88d 3003 	strb.w	r3, [sp, #3]

  switch (clk) {
    251c:	f89d 3003 	ldrb.w	r3, [sp, #3]
    2520:	2b07      	cmp	r3, #7
    2522:	d005      	beq.n	2530 <dbgClkGet+0x24>
    2524:	2b09      	cmp	r3, #9
    2526:	d107      	bne.n	2538 <dbgClkGet+0x2c>
    case cmuSelect_HFCLK:
      ret = SystemHFClockGet();
    2528:	f7ff fe40 	bl	21ac <SystemHFClockGet>
    252c:	9001      	str	r0, [sp, #4]
      break;
    252e:	e006      	b.n	253e <dbgClkGet+0x32>

    case cmuSelect_AUXHFRCO:
      ret = auxClkGet();
    2530:	f7ff ff94 	bl	245c <auxClkGet>
    2534:	9001      	str	r0, [sp, #4]
      break;
    2536:	e002      	b.n	253e <dbgClkGet+0x32>

    default:
      EFM_ASSERT(0);
      ret = 0;
    2538:	2300      	movs	r3, #0
    253a:	9301      	str	r3, [sp, #4]
      break;
    253c:	bf00      	nop
  }
  return ret;
    253e:	9b01      	ldr	r3, [sp, #4]
}
    2540:	4618      	mov	r0, r3
    2542:	b003      	add	sp, #12
    2544:	f85d fb04 	ldr.w	pc, [sp], #4
    2548:	000c0006 	.word	0x000c0006

0000254c <lfClkGet>:
 * @return
 *   The LFnCLK frequency in Hz. If no LFnCLK is selected (disabled), 0 is
 *   returned.
 ******************************************************************************/
static uint32_t lfClkGet(CMU_Clock_TypeDef lfClkBranch)
{
    254c:	b510      	push	{r4, lr}
    254e:	b084      	sub	sp, #16
    2550:	9001      	str	r0, [sp, #4]
  uint32_t sel;
  uint32_t ret = 0;
    2552:	2300      	movs	r3, #0
    2554:	9302      	str	r3, [sp, #8]

  switch (lfClkBranch) {
    2556:	9b01      	ldr	r3, [sp, #4]
    2558:	4a32      	ldr	r2, [pc, #200]	; (2624 <lfClkGet+0xd8>)
    255a:	4293      	cmp	r3, r2
    255c:	d003      	beq.n	2566 <lfClkGet+0x1a>
    255e:	4a32      	ldr	r2, [pc, #200]	; (2628 <lfClkGet+0xdc>)
    2560:	4293      	cmp	r3, r2
    2562:	d000      	beq.n	2566 <lfClkGet+0x1a>
#endif
      break;

    default:
      EFM_ASSERT(0);
      break;
    2564:	e000      	b.n	2568 <lfClkGet+0x1c>
    case cmuClock_LFC:
#endif
#if defined(_CMU_LFECLKSEL_MASK)
    case cmuClock_LFE:
#endif
      break;
    2566:	bf00      	nop
    default:
      EFM_ASSERT(0);
      break;
  }

  sel = CMU_ClockSelectGet(lfClkBranch);
    2568:	9801      	ldr	r0, [sp, #4]
    256a:	f000 f9ef 	bl	294c <CMU_ClockSelectGet>
    256e:	4603      	mov	r3, r0
    2570:	9303      	str	r3, [sp, #12]

  /* Get clock select field */
  switch (lfClkBranch) {
    2572:	9b01      	ldr	r3, [sp, #4]
    2574:	4a2b      	ldr	r2, [pc, #172]	; (2624 <lfClkGet+0xd8>)
    2576:	4293      	cmp	r3, r2
    2578:	d003      	beq.n	2582 <lfClkGet+0x36>
    257a:	4a2b      	ldr	r2, [pc, #172]	; (2628 <lfClkGet+0xdc>)
    257c:	4293      	cmp	r3, r2
    257e:	d006      	beq.n	258e <lfClkGet+0x42>
      break;
#endif

    default:
      EFM_ASSERT(0);
      break;
    2580:	e00c      	b.n	259c <lfClkGet+0x50>

  /* Get clock select field */
  switch (lfClkBranch) {
    case cmuClock_LFA:
#if defined(_CMU_LFCLKSEL_MASK)
      sel = (CMU->LFCLKSEL & _CMU_LFCLKSEL_LFA_MASK) >> _CMU_LFCLKSEL_LFA_SHIFT;
    2582:	4b2a      	ldr	r3, [pc, #168]	; (262c <lfClkGet+0xe0>)
    2584:	6a9b      	ldr	r3, [r3, #40]	; 0x28
    2586:	f003 0303 	and.w	r3, r3, #3
    258a:	9303      	str	r3, [sp, #12]
#elif defined(_CMU_LFACLKSEL_MASK)
      sel = (CMU->LFACLKSEL & _CMU_LFACLKSEL_LFA_MASK) >> _CMU_LFACLKSEL_LFA_SHIFT;
#else
      EFM_ASSERT(0);
#endif
      break;
    258c:	e006      	b.n	259c <lfClkGet+0x50>

    case cmuClock_LFB:
#if defined(_CMU_LFCLKSEL_MASK)
      sel = (CMU->LFCLKSEL & _CMU_LFCLKSEL_LFB_MASK) >> _CMU_LFCLKSEL_LFB_SHIFT;
    258e:	4b27      	ldr	r3, [pc, #156]	; (262c <lfClkGet+0xe0>)
    2590:	6a9b      	ldr	r3, [r3, #40]	; 0x28
    2592:	f003 030c 	and.w	r3, r3, #12
    2596:	089b      	lsrs	r3, r3, #2
    2598:	9303      	str	r3, [sp, #12]
#elif defined(_CMU_LFBCLKSEL_MASK)
      sel = (CMU->LFBCLKSEL & _CMU_LFBCLKSEL_LFB_MASK) >> _CMU_LFBCLKSEL_LFB_SHIFT;
#else
      EFM_ASSERT(0);
#endif
      break;
    259a:	bf00      	nop
      break;
  }

  /* Get clock frequency */
#if defined(_CMU_LFCLKSEL_MASK)
  switch (sel) {
    259c:	9b03      	ldr	r3, [sp, #12]
    259e:	2b03      	cmp	r3, #3
    25a0:	d838      	bhi.n	2614 <lfClkGet+0xc8>
    25a2:	a201      	add	r2, pc, #4	; (adr r2, 25a8 <lfClkGet+0x5c>)
    25a4:	f852 f023 	ldr.w	pc, [r2, r3, lsl #2]
    25a8:	000025df 	.word	0x000025df
    25ac:	000025b9 	.word	0x000025b9
    25b0:	000025c1 	.word	0x000025c1
    25b4:	000025c9 	.word	0x000025c9
    case _CMU_LFCLKSEL_LFA_LFRCO:
      ret = SystemLFRCOClockGet();
    25b8:	f7ff fe7a 	bl	22b0 <SystemLFRCOClockGet>
    25bc:	9002      	str	r0, [sp, #8]
      break;
    25be:	e02d      	b.n	261c <lfClkGet+0xd0>

    case _CMU_LFCLKSEL_LFA_LFXO:
      ret = SystemLFXOClockGet();
    25c0:	f7ff fe7e 	bl	22c0 <SystemLFXOClockGet>
    25c4:	9002      	str	r0, [sp, #8]
      break;
    25c6:	e029      	b.n	261c <lfClkGet+0xd0>
#if defined(_CMU_LFCLKSEL_LFA_HFCORECLKLEDIV2)
    case _CMU_LFCLKSEL_LFA_HFCORECLKLEDIV2:
#if defined(CMU_MAX_FREQ_HFLE)
      /* HFLE bit is or'ed by hardware with HFCORECLKLEDIV to reduce the
       * frequency of CMU_HFCORECLKLEDIV2. */
      ret = SystemCoreClockGet() / (1U << (getHfLeConfig() + 1));
    25c8:	f7ff fdd6 	bl	2178 <SystemCoreClockGet>
    25cc:	4604      	mov	r4, r0
    25ce:	f7ff ff37 	bl	2440 <getHfLeConfig>
    25d2:	4603      	mov	r3, r0
    25d4:	3301      	adds	r3, #1
    25d6:	fa24 f303 	lsr.w	r3, r4, r3
    25da:	9302      	str	r3, [sp, #8]
#else
      ret = SystemCoreClockGet() / 2U;
#endif
      break;
    25dc:	e01e      	b.n	261c <lfClkGet+0xd0>
#endif

    case _CMU_LFCLKSEL_LFA_DISABLED:
      ret = 0;
    25de:	2300      	movs	r3, #0
    25e0:	9302      	str	r3, [sp, #8]
#if defined(CMU_LFCLKSEL_LFAE)
      /* Check LF Extended bit setting for LFA or LFB ULFRCO clock */
      if ((lfClkBranch == cmuClock_LFA) || (lfClkBranch == cmuClock_LFB)) {
    25e2:	9b01      	ldr	r3, [sp, #4]
    25e4:	4a0f      	ldr	r2, [pc, #60]	; (2624 <lfClkGet+0xd8>)
    25e6:	4293      	cmp	r3, r2
    25e8:	d003      	beq.n	25f2 <lfClkGet+0xa6>
    25ea:	9b01      	ldr	r3, [sp, #4]
    25ec:	4a0e      	ldr	r2, [pc, #56]	; (2628 <lfClkGet+0xdc>)
    25ee:	4293      	cmp	r3, r2
    25f0:	d113      	bne.n	261a <lfClkGet+0xce>
        if (CMU->LFCLKSEL >> (lfClkBranch == cmuClock_LFA
    25f2:	4b0e      	ldr	r3, [pc, #56]	; (262c <lfClkGet+0xe0>)
    25f4:	6a9a      	ldr	r2, [r3, #40]	; 0x28
                              ? _CMU_LFCLKSEL_LFAE_SHIFT
                              : _CMU_LFCLKSEL_LFBE_SHIFT)) {
    25f6:	9b01      	ldr	r3, [sp, #4]
    25f8:	490a      	ldr	r1, [pc, #40]	; (2624 <lfClkGet+0xd8>)
    25fa:	428b      	cmp	r3, r1
    25fc:	d101      	bne.n	2602 <lfClkGet+0xb6>
    25fe:	2310      	movs	r3, #16
    2600:	e000      	b.n	2604 <lfClkGet+0xb8>
    2602:	2314      	movs	r3, #20
    case _CMU_LFCLKSEL_LFA_DISABLED:
      ret = 0;
#if defined(CMU_LFCLKSEL_LFAE)
      /* Check LF Extended bit setting for LFA or LFB ULFRCO clock */
      if ((lfClkBranch == cmuClock_LFA) || (lfClkBranch == cmuClock_LFB)) {
        if (CMU->LFCLKSEL >> (lfClkBranch == cmuClock_LFA
    2604:	fa22 f303 	lsr.w	r3, r2, r3
    2608:	2b00      	cmp	r3, #0
    260a:	d006      	beq.n	261a <lfClkGet+0xce>
                              ? _CMU_LFCLKSEL_LFAE_SHIFT
                              : _CMU_LFCLKSEL_LFBE_SHIFT)) {
          ret = SystemULFRCOClockGet();
    260c:	f7ff fe54 	bl	22b8 <SystemULFRCOClockGet>
    2610:	9002      	str	r0, [sp, #8]
        }
      }
#endif
      break;
    2612:	e002      	b.n	261a <lfClkGet+0xce>

    default:
      EFM_ASSERT(0);
      ret = 0U;
    2614:	2300      	movs	r3, #0
    2616:	9302      	str	r3, [sp, #8]
      break;
    2618:	e000      	b.n	261c <lfClkGet+0xd0>
                              : _CMU_LFCLKSEL_LFBE_SHIFT)) {
          ret = SystemULFRCOClockGet();
        }
      }
#endif
      break;
    261a:	bf00      	nop
      ret = 0;
      break;
  }
#endif

  return ret;
    261c:	9b02      	ldr	r3, [sp, #8]
}
    261e:	4618      	mov	r0, r3
    2620:	b004      	add	sp, #16
    2622:	bd10      	pop	{r4, pc}
    2624:	001a0002 	.word	0x001a0002
    2628:	001c0003 	.word	0x001c0003
    262c:	400c8000 	.word	0x400c8000

00002630 <syncReg>:
 * @param[in] mask
 *   Bitmask corresponding to SYNCBUSY register defined bits, indicating
 *   registers that must complete any ongoing synchronization.
 ******************************************************************************/
__STATIC_INLINE void syncReg(uint32_t mask)
{
    2630:	b082      	sub	sp, #8
    2632:	9001      	str	r0, [sp, #4]
  /* Avoid deadlock if modifying the same register twice when freeze mode is */
  /* activated. */
  if (CMU->FREEZE & CMU_FREEZE_REGFREEZE) {
    2634:	4b08      	ldr	r3, [pc, #32]	; (2658 <syncReg+0x28>)
    2636:	6d5b      	ldr	r3, [r3, #84]	; 0x54
    2638:	f003 0301 	and.w	r3, r3, #1
    263c:	2b00      	cmp	r3, #0
    263e:	d107      	bne.n	2650 <syncReg+0x20>
    return;
  }

  /* Wait for any pending previous write operation to have been completed */
  /* in low frequency domain */
  while (CMU->SYNCBUSY & mask) {
    2640:	bf00      	nop
    2642:	4b05      	ldr	r3, [pc, #20]	; (2658 <syncReg+0x28>)
    2644:	6d1a      	ldr	r2, [r3, #80]	; 0x50
    2646:	9b01      	ldr	r3, [sp, #4]
    2648:	4013      	ands	r3, r2
    264a:	2b00      	cmp	r3, #0
    264c:	d1f9      	bne.n	2642 <syncReg+0x12>
    264e:	e000      	b.n	2652 <syncReg+0x22>
__STATIC_INLINE void syncReg(uint32_t mask)
{
  /* Avoid deadlock if modifying the same register twice when freeze mode is */
  /* activated. */
  if (CMU->FREEZE & CMU_FREEZE_REGFREEZE) {
    return;
    2650:	bf00      	nop

  /* Wait for any pending previous write operation to have been completed */
  /* in low frequency domain */
  while (CMU->SYNCBUSY & mask) {
  }
}
    2652:	b002      	add	sp, #8
    2654:	4770      	bx	lr
    2656:	bf00      	nop
    2658:	400c8000 	.word	0x400c8000

0000265c <usbCClkGet>:
 *
 * @return
 *   USBC frequency in Hz
 ******************************************************************************/
static uint32_t usbCClkGet(void)
{
    265c:	b500      	push	{lr}
    265e:	b083      	sub	sp, #12
  uint32_t ret;
  CMU_Select_TypeDef clk;

  /* Get selected clock source */
  clk = CMU_ClockSelectGet(cmuClock_USBC);
    2660:	4810      	ldr	r0, [pc, #64]	; (26a4 <usbCClkGet+0x48>)
    2662:	f000 f973 	bl	294c <CMU_ClockSelectGet>
    2666:	4603      	mov	r3, r0
    2668:	f88d 3003 	strb.w	r3, [sp, #3]

  switch (clk) {
    266c:	f89d 3003 	ldrb.w	r3, [sp, #3]
    2670:	2b03      	cmp	r3, #3
    2672:	d007      	beq.n	2684 <usbCClkGet+0x28>
    2674:	2b09      	cmp	r3, #9
    2676:	d009      	beq.n	268c <usbCClkGet+0x30>
    2678:	2b02      	cmp	r3, #2
    267a:	d10b      	bne.n	2694 <usbCClkGet+0x38>
    case cmuSelect_LFXO:
      ret = SystemLFXOClockGet();
    267c:	f7ff fe20 	bl	22c0 <SystemLFXOClockGet>
    2680:	9001      	str	r0, [sp, #4]
      break;
    2682:	e00a      	b.n	269a <usbCClkGet+0x3e>
    case cmuSelect_LFRCO:
      ret = SystemLFRCOClockGet();
    2684:	f7ff fe14 	bl	22b0 <SystemLFRCOClockGet>
    2688:	9001      	str	r0, [sp, #4]
      break;
    268a:	e006      	b.n	269a <usbCClkGet+0x3e>
    case cmuSelect_USHFRCO:
      ret = ushfrcoFreq;
      break;
#endif
    case cmuSelect_HFCLK:
      ret = SystemHFClockGet();
    268c:	f7ff fd8e 	bl	21ac <SystemHFClockGet>
    2690:	9001      	str	r0, [sp, #4]
      break;
    2692:	e002      	b.n	269a <usbCClkGet+0x3e>
    default:
      /* Clock is not enabled */
      ret = 0;
    2694:	2300      	movs	r3, #0
    2696:	9301      	str	r3, [sp, #4]
      break;
    2698:	bf00      	nop
  }
  return ret;
    269a:	9b01      	ldr	r3, [sp, #4]
}
    269c:	4618      	mov	r0, r3
    269e:	b003      	add	sp, #12
    26a0:	f85d fb04 	ldr.w	pc, [sp], #4
    26a4:	00222307 	.word	0x00222307

000026a8 <CMU_ClockEnable>:
 * @param[in] enable
 *   @li true - enable specified clock.
 *   @li false - disable specified clock.
 ******************************************************************************/
void CMU_ClockEnable(CMU_Clock_TypeDef clock, bool enable)
{
    26a8:	b500      	push	{lr}
    26aa:	b087      	sub	sp, #28
    26ac:	9001      	str	r0, [sp, #4]
    26ae:	460b      	mov	r3, r1
    26b0:	f88d 3003 	strb.w	r3, [sp, #3]
  volatile uint32_t *reg;
  uint32_t          bit;
  uint32_t          sync = 0;
    26b4:	2300      	movs	r3, #0
    26b6:	9304      	str	r3, [sp, #16]

  /* Identify enable register */
  switch ((clock >> CMU_EN_REG_POS) & CMU_EN_REG_MASK) {
    26b8:	9b01      	ldr	r3, [sp, #4]
    26ba:	0a1b      	lsrs	r3, r3, #8
    26bc:	f003 030f 	and.w	r3, r3, #15
    26c0:	3b01      	subs	r3, #1
    26c2:	2b09      	cmp	r3, #9
    26c4:	d846      	bhi.n	2754 <CMU_ClockEnable+0xac>
    26c6:	a201      	add	r2, pc, #4	; (adr r2, 26cc <CMU_ClockEnable+0x24>)
    26c8:	f852 f023 	ldr.w	pc, [r2, r3, lsl #2]
    26cc:	00002709 	.word	0x00002709
    26d0:	0000270f 	.word	0x0000270f
    26d4:	000026f5 	.word	0x000026f5
    26d8:	00002755 	.word	0x00002755
    26dc:	00002755 	.word	0x00002755
    26e0:	00002715 	.word	0x00002715
    26e4:	0000271f 	.word	0x0000271f
    26e8:	00002755 	.word	0x00002755
    26ec:	00002755 	.word	0x00002755
    26f0:	00002729 	.word	0x00002729
      break;
#endif

#if defined(_CMU_HFCORECLKEN0_MASK)
    case CMU_HFCORECLKEN0_EN_REG:
      reg = &CMU->HFCORECLKEN0;
    26f4:	4b19      	ldr	r3, [pc, #100]	; (275c <CMU_ClockEnable+0xb4>)
    26f6:	9305      	str	r3, [sp, #20]
#if defined(CMU_MAX_FREQ_HFLE)
      setHfLeConfig(CMU_ClockFreqGet(cmuClock_HFLE));
    26f8:	4819      	ldr	r0, [pc, #100]	; (2760 <CMU_ClockEnable+0xb8>)
    26fa:	f000 f83d 	bl	2778 <CMU_ClockFreqGet>
    26fe:	4603      	mov	r3, r0
    2700:	4618      	mov	r0, r3
    2702:	f7ff fe6d 	bl	23e0 <setHfLeConfig>
#endif
      break;
    2706:	e012      	b.n	272e <CMU_ClockEnable+0x86>
      break;
#endif

#if defined(_CMU_HFPERCLKDIV_MASK)
    case CMU_HFPERCLKDIV_EN_REG:
      reg = &CMU->HFPERCLKDIV;
    2708:	4b16      	ldr	r3, [pc, #88]	; (2764 <CMU_ClockEnable+0xbc>)
    270a:	9305      	str	r3, [sp, #20]
      break;
    270c:	e00f      	b.n	272e <CMU_ClockEnable+0x86>
#endif

    case CMU_HFPERCLKEN0_EN_REG:
      reg = &CMU->HFPERCLKEN0;
    270e:	4b16      	ldr	r3, [pc, #88]	; (2768 <CMU_ClockEnable+0xc0>)
    2710:	9305      	str	r3, [sp, #20]
      break;
    2712:	e00c      	b.n	272e <CMU_ClockEnable+0x86>
      reg = &CMU->HFPERCLKEN1;
      break;
#endif

    case CMU_LFACLKEN0_EN_REG:
      reg  = &CMU->LFACLKEN0;
    2714:	4b15      	ldr	r3, [pc, #84]	; (276c <CMU_ClockEnable+0xc4>)
    2716:	9305      	str	r3, [sp, #20]
      sync = CMU_SYNCBUSY_LFACLKEN0;
    2718:	2301      	movs	r3, #1
    271a:	9304      	str	r3, [sp, #16]
      break;
    271c:	e007      	b.n	272e <CMU_ClockEnable+0x86>

    case CMU_LFBCLKEN0_EN_REG:
      reg  = &CMU->LFBCLKEN0;
    271e:	4b14      	ldr	r3, [pc, #80]	; (2770 <CMU_ClockEnable+0xc8>)
    2720:	9305      	str	r3, [sp, #20]
      sync = CMU_SYNCBUSY_LFBCLKEN0;
    2722:	2310      	movs	r3, #16
    2724:	9304      	str	r3, [sp, #16]
      break;
    2726:	e002      	b.n	272e <CMU_ClockEnable+0x86>
      reg = &CMU->USBCTRL;
      break;
#endif

    case CMU_PCNT_EN_REG:
      reg = &CMU->PCNTCTRL;
    2728:	4b12      	ldr	r3, [pc, #72]	; (2774 <CMU_ClockEnable+0xcc>)
    272a:	9305      	str	r3, [sp, #20]
      break;
    272c:	bf00      	nop
      EFM_ASSERT(0);
      return;
  }

  /* Get bit position used to enable/disable */
  bit = (clock >> CMU_EN_BIT_POS) & CMU_EN_BIT_MASK;
    272e:	9b01      	ldr	r3, [sp, #4]
    2730:	0b1b      	lsrs	r3, r3, #12
    2732:	f003 031f 	and.w	r3, r3, #31
    2736:	9303      	str	r3, [sp, #12]

  /* LF synchronization required? */
  if (sync) {
    2738:	9b04      	ldr	r3, [sp, #16]
    273a:	2b00      	cmp	r3, #0
    273c:	d002      	beq.n	2744 <CMU_ClockEnable+0x9c>
    syncReg(sync);
    273e:	9804      	ldr	r0, [sp, #16]
    2740:	f7ff ff76 	bl	2630 <syncReg>
  }

  /* Set/clear bit as requested */
  BUS_RegBitWrite(reg, bit, enable);
    2744:	f89d 3003 	ldrb.w	r3, [sp, #3]
    2748:	461a      	mov	r2, r3
    274a:	9903      	ldr	r1, [sp, #12]
    274c:	9805      	ldr	r0, [sp, #20]
    274e:	f7ff fdbd 	bl	22cc <BUS_RegBitWrite>
    2752:	e000      	b.n	2756 <CMU_ClockEnable+0xae>
      reg = &CMU->PCNTCTRL;
      break;

    default: /* Cannot enable/disable clock point */
      EFM_ASSERT(0);
      return;
    2754:	bf00      	nop
    syncReg(sync);
  }

  /* Set/clear bit as requested */
  BUS_RegBitWrite(reg, bit, enable);
}
    2756:	b007      	add	sp, #28
    2758:	f85d fb04 	ldr.w	pc, [sp], #4
    275c:	400c8040 	.word	0x400c8040
    2760:	00024300 	.word	0x00024300
    2764:	400c8008 	.word	0x400c8008
    2768:	400c8044 	.word	0x400c8044
    276c:	400c8058 	.word	0x400c8058
    2770:	400c8060 	.word	0x400c8060
    2774:	400c8078 	.word	0x400c8078

00002778 <CMU_ClockFreqGet>:
 *
 * @return
 *   The current frequency in Hz.
 ******************************************************************************/
uint32_t CMU_ClockFreqGet(CMU_Clock_TypeDef clock)
{
    2778:	b510      	push	{r4, lr}
    277a:	b084      	sub	sp, #16
    277c:	9001      	str	r0, [sp, #4]
  uint32_t ret;

  switch (clock & (CMU_CLK_BRANCH_MASK << CMU_CLK_BRANCH_POS)) {
    277e:	9b01      	ldr	r3, [sp, #4]
    2780:	f403 1378 	and.w	r3, r3, #4063232	; 0x3e0000
    2784:	f5b3 1fb0 	cmp.w	r3, #1441792	; 0x160000
    2788:	f000 80ab 	beq.w	28e2 <CMU_ClockFreqGet+0x16a>
    278c:	f5b3 1fb0 	cmp.w	r3, #1441792	; 0x160000
    2790:	d81a      	bhi.n	27c8 <CMU_ClockFreqGet+0x50>
    2792:	f5b3 2f40 	cmp.w	r3, #786432	; 0xc0000
    2796:	f000 80bf 	beq.w	2918 <CMU_ClockFreqGet+0x1a0>
    279a:	f5b3 2f40 	cmp.w	r3, #786432	; 0xc0000
    279e:	d808      	bhi.n	27b2 <CMU_ClockFreqGet+0x3a>
    27a0:	f5b3 3f00 	cmp.w	r3, #131072	; 0x20000
    27a4:	d03c      	beq.n	2820 <CMU_ClockFreqGet+0xa8>
    27a6:	f5b3 2f80 	cmp.w	r3, #262144	; 0x40000
    27aa:	d02d      	beq.n	2808 <CMU_ClockFreqGet+0x90>
    27ac:	2b00      	cmp	r3, #0
    27ae:	d027      	beq.n	2800 <CMU_ClockFreqGet+0x88>
    27b0:	e0be      	b.n	2930 <CMU_ClockFreqGet+0x1b8>
    27b2:	f5b3 1f80 	cmp.w	r3, #1048576	; 0x100000
    27b6:	d03c      	beq.n	2832 <CMU_ClockFreqGet+0xba>
    27b8:	f5b3 1fa0 	cmp.w	r3, #1310720	; 0x140000
    27bc:	d047      	beq.n	284e <CMU_ClockFreqGet+0xd6>
    27be:	f5b3 2f60 	cmp.w	r3, #917504	; 0xe0000
    27c2:	f000 80ad 	beq.w	2920 <CMU_ClockFreqGet+0x1a8>
    27c6:	e0b3      	b.n	2930 <CMU_ClockFreqGet+0x1b8>
    27c8:	f5b3 1f08 	cmp.w	r3, #2228224	; 0x220000
    27cc:	f000 80ac 	beq.w	2928 <CMU_ClockFreqGet+0x1b0>
    27d0:	f5b3 1f08 	cmp.w	r3, #2228224	; 0x220000
    27d4:	d80a      	bhi.n	27ec <CMU_ClockFreqGet+0x74>
    27d6:	f5b3 1fd0 	cmp.w	r3, #1703936	; 0x1a0000
    27da:	d025      	beq.n	2828 <CMU_ClockFreqGet+0xb0>
    27dc:	f5b3 1fe0 	cmp.w	r3, #1835008	; 0x1c0000
    27e0:	d07a      	beq.n	28d8 <CMU_ClockFreqGet+0x160>
    27e2:	f5b3 1fc0 	cmp.w	r3, #1572864	; 0x180000
    27e6:	f000 8089 	beq.w	28fc <CMU_ClockFreqGet+0x184>
    27ea:	e0a1      	b.n	2930 <CMU_ClockFreqGet+0x1b8>
    27ec:	f5b3 1f20 	cmp.w	r3, #2621440	; 0x280000
    27f0:	d04e      	beq.n	2890 <CMU_ClockFreqGet+0x118>
    27f2:	f5b3 1f28 	cmp.w	r3, #2752512	; 0x2a0000
    27f6:	d062      	beq.n	28be <CMU_ClockFreqGet+0x146>
    27f8:	f5b3 1f18 	cmp.w	r3, #2490368	; 0x260000
    27fc:	d035      	beq.n	286a <CMU_ClockFreqGet+0xf2>
    27fe:	e097      	b.n	2930 <CMU_ClockFreqGet+0x1b8>
    case (CMU_HF_CLK_BRANCH << CMU_CLK_BRANCH_POS):
      ret = SystemHFClockGet();
    2800:	f7ff fcd4 	bl	21ac <SystemHFClockGet>
    2804:	9003      	str	r0, [sp, #12]
      break;
    2806:	e096      	b.n	2936 <CMU_ClockFreqGet+0x1be>

    case (CMU_HFPER_CLK_BRANCH << CMU_CLK_BRANCH_POS):
      ret = SystemHFClockGet();
    2808:	f7ff fcd0 	bl	21ac <SystemHFClockGet>
    280c:	9003      	str	r0, [sp, #12]
      /* Calculate frequency after HFPER divider. */
#if defined(_CMU_HFPERCLKDIV_HFPERCLKDIV_MASK)
      ret >>= (CMU->HFPERCLKDIV & _CMU_HFPERCLKDIV_HFPERCLKDIV_MASK)
    280e:	4b4c      	ldr	r3, [pc, #304]	; (2940 <CMU_ClockFreqGet+0x1c8>)
    2810:	689b      	ldr	r3, [r3, #8]
              >> _CMU_HFPERCLKDIV_HFPERCLKDIV_SHIFT;
    2812:	f003 030f 	and.w	r3, r3, #15

    case (CMU_HFPER_CLK_BRANCH << CMU_CLK_BRANCH_POS):
      ret = SystemHFClockGet();
      /* Calculate frequency after HFPER divider. */
#if defined(_CMU_HFPERCLKDIV_HFPERCLKDIV_MASK)
      ret >>= (CMU->HFPERCLKDIV & _CMU_HFPERCLKDIV_HFPERCLKDIV_MASK)
    2816:	9a03      	ldr	r2, [sp, #12]
    2818:	fa22 f303 	lsr.w	r3, r2, r3
    281c:	9303      	str	r3, [sp, #12]
#endif
#if defined(_CMU_HFPERPRESC_PRESC_MASK)
      ret /= 1U + ((CMU->HFPERPRESC & _CMU_HFPERPRESC_PRESC_MASK)
                   >> _CMU_HFPERPRESC_PRESC_SHIFT);
#endif
      break;
    281e:	e08a      	b.n	2936 <CMU_ClockFreqGet+0x1be>
      || defined(DMA_PRESENT) \
      || defined(EBI_PRESENT) \
      || defined(USB_PRESENT)
    case (CMU_HFCORE_CLK_BRANCH << CMU_CLK_BRANCH_POS):
    {
      ret = SystemCoreClockGet();
    2820:	f7ff fcaa 	bl	2178 <SystemCoreClockGet>
    2824:	9003      	str	r0, [sp, #12]
    } break;
    2826:	e086      	b.n	2936 <CMU_ClockFreqGet+0x1be>
#endif
#endif

    case (CMU_LFA_CLK_BRANCH << CMU_CLK_BRANCH_POS):
      ret = lfClkGet(cmuClock_LFA);
    2828:	4846      	ldr	r0, [pc, #280]	; (2944 <CMU_ClockFreqGet+0x1cc>)
    282a:	f7ff fe8f 	bl	254c <lfClkGet>
    282e:	9003      	str	r0, [sp, #12]
      break;
    2830:	e081      	b.n	2936 <CMU_ClockFreqGet+0x1be>

#if defined(_CMU_LFACLKEN0_RTC_MASK)
    case (CMU_RTC_CLK_BRANCH << CMU_CLK_BRANCH_POS):
      ret = lfClkGet(cmuClock_LFA);
    2832:	4844      	ldr	r0, [pc, #272]	; (2944 <CMU_ClockFreqGet+0x1cc>)
    2834:	f7ff fe8a 	bl	254c <lfClkGet>
    2838:	9003      	str	r0, [sp, #12]
      ret >>= (CMU->LFAPRESC0 & _CMU_LFAPRESC0_RTC_MASK)
    283a:	4b41      	ldr	r3, [pc, #260]	; (2940 <CMU_ClockFreqGet+0x1c8>)
    283c:	6e9b      	ldr	r3, [r3, #104]	; 0x68
    283e:	f003 03f0 	and.w	r3, r3, #240	; 0xf0
              >> _CMU_LFAPRESC0_RTC_SHIFT;
    2842:	091b      	lsrs	r3, r3, #4
      break;

#if defined(_CMU_LFACLKEN0_RTC_MASK)
    case (CMU_RTC_CLK_BRANCH << CMU_CLK_BRANCH_POS):
      ret = lfClkGet(cmuClock_LFA);
      ret >>= (CMU->LFAPRESC0 & _CMU_LFAPRESC0_RTC_MASK)
    2844:	9a03      	ldr	r2, [sp, #12]
    2846:	fa22 f303 	lsr.w	r3, r2, r3
    284a:	9303      	str	r3, [sp, #12]
              >> _CMU_LFAPRESC0_RTC_SHIFT;
      break;
    284c:	e073      	b.n	2936 <CMU_ClockFreqGet+0x1be>
      break;
#endif

#if defined(_CMU_LFACLKEN0_LETIMER0_MASK)
    case (CMU_LETIMER0_CLK_BRANCH << CMU_CLK_BRANCH_POS):
      ret = lfClkGet(cmuClock_LFA);
    284e:	483d      	ldr	r0, [pc, #244]	; (2944 <CMU_ClockFreqGet+0x1cc>)
    2850:	f7ff fe7c 	bl	254c <lfClkGet>
    2854:	9003      	str	r0, [sp, #12]
#if defined(_SILICON_LABS_32B_SERIES_0)
      ret >>= (CMU->LFAPRESC0 & _CMU_LFAPRESC0_LETIMER0_MASK)
    2856:	4b3a      	ldr	r3, [pc, #232]	; (2940 <CMU_ClockFreqGet+0x1c8>)
    2858:	6e9b      	ldr	r3, [r3, #104]	; 0x68
    285a:	f403 6370 	and.w	r3, r3, #3840	; 0xf00
              >> _CMU_LFAPRESC0_LETIMER0_SHIFT;
    285e:	0a1b      	lsrs	r3, r3, #8

#if defined(_CMU_LFACLKEN0_LETIMER0_MASK)
    case (CMU_LETIMER0_CLK_BRANCH << CMU_CLK_BRANCH_POS):
      ret = lfClkGet(cmuClock_LFA);
#if defined(_SILICON_LABS_32B_SERIES_0)
      ret >>= (CMU->LFAPRESC0 & _CMU_LFAPRESC0_LETIMER0_MASK)
    2860:	9a03      	ldr	r2, [sp, #12]
    2862:	fa22 f303 	lsr.w	r3, r2, r3
    2866:	9303      	str	r3, [sp, #12]
              >> _CMU_LFAPRESC0_LETIMER0_SHIFT;
#else
      ret /= CMU_Log2ToDiv((CMU->LFAPRESC0 & _CMU_LFAPRESC0_LETIMER0_MASK)
                           >> _CMU_LFAPRESC0_LETIMER0_SHIFT);
#endif
      break;
    2868:	e065      	b.n	2936 <CMU_ClockFreqGet+0x1be>
#endif

#if defined(_CMU_LFACLKEN0_LCD_MASK)
    case (CMU_LCDPRE_CLK_BRANCH << CMU_CLK_BRANCH_POS):
      ret = lfClkGet(cmuClock_LFA);
    286a:	4836      	ldr	r0, [pc, #216]	; (2944 <CMU_ClockFreqGet+0x1cc>)
    286c:	f7ff fe6e 	bl	254c <lfClkGet>
    2870:	9003      	str	r0, [sp, #12]
#if defined(_SILICON_LABS_32B_SERIES_0)
      ret >>= ((CMU->LFAPRESC0 & _CMU_LFAPRESC0_LCD_MASK)
    2872:	4b33      	ldr	r3, [pc, #204]	; (2940 <CMU_ClockFreqGet+0x1c8>)
    2874:	6e9b      	ldr	r3, [r3, #104]	; 0x68
    2876:	f403 5340 	and.w	r3, r3, #12288	; 0x3000
               >> _CMU_LFAPRESC0_LCD_SHIFT)
    287a:	0b1c      	lsrs	r4, r3, #12
              + CMU_DivToLog2(cmuClkDiv_16);
    287c:	2010      	movs	r0, #16
    287e:	f7ff fd47 	bl	2310 <CMU_DivToLog2>
    2882:	4603      	mov	r3, r0
    2884:	4423      	add	r3, r4

#if defined(_CMU_LFACLKEN0_LCD_MASK)
    case (CMU_LCDPRE_CLK_BRANCH << CMU_CLK_BRANCH_POS):
      ret = lfClkGet(cmuClock_LFA);
#if defined(_SILICON_LABS_32B_SERIES_0)
      ret >>= ((CMU->LFAPRESC0 & _CMU_LFAPRESC0_LCD_MASK)
    2886:	9a03      	ldr	r2, [sp, #12]
    2888:	fa22 f303 	lsr.w	r3, r2, r3
    288c:	9303      	str	r3, [sp, #12]
              + CMU_DivToLog2(cmuClkDiv_16);
#else
      ret /= CMU_Log2ToDiv((CMU->LFAPRESC0 & _CMU_LFAPRESC0_LCD_MASK)
                           >> _CMU_LFAPRESC0_LCD_SHIFT);
#endif
      break;
    288e:	e052      	b.n	2936 <CMU_ClockFreqGet+0x1be>

#if defined(_CMU_LCDCTRL_MASK)
    case (CMU_LCD_CLK_BRANCH << CMU_CLK_BRANCH_POS):
      ret = lfClkGet(cmuClock_LFA);
    2890:	482c      	ldr	r0, [pc, #176]	; (2944 <CMU_ClockFreqGet+0x1cc>)
    2892:	f7ff fe5b 	bl	254c <lfClkGet>
    2896:	9003      	str	r0, [sp, #12]
      ret >>= (CMU->LFAPRESC0 & _CMU_LFAPRESC0_LCD_MASK)
    2898:	4b29      	ldr	r3, [pc, #164]	; (2940 <CMU_ClockFreqGet+0x1c8>)
    289a:	6e9b      	ldr	r3, [r3, #104]	; 0x68
    289c:	f403 5340 	and.w	r3, r3, #12288	; 0x3000
              >> _CMU_LFAPRESC0_LCD_SHIFT;
    28a0:	0b1b      	lsrs	r3, r3, #12
      break;

#if defined(_CMU_LCDCTRL_MASK)
    case (CMU_LCD_CLK_BRANCH << CMU_CLK_BRANCH_POS):
      ret = lfClkGet(cmuClock_LFA);
      ret >>= (CMU->LFAPRESC0 & _CMU_LFAPRESC0_LCD_MASK)
    28a2:	9a03      	ldr	r2, [sp, #12]
    28a4:	fa22 f303 	lsr.w	r3, r2, r3
    28a8:	9303      	str	r3, [sp, #12]
              >> _CMU_LFAPRESC0_LCD_SHIFT;
      ret /= 1U + ((CMU->LCDCTRL & _CMU_LCDCTRL_FDIV_MASK)
    28aa:	4b25      	ldr	r3, [pc, #148]	; (2940 <CMU_ClockFreqGet+0x1c8>)
    28ac:	6fdb      	ldr	r3, [r3, #124]	; 0x7c
                   >> _CMU_LCDCTRL_FDIV_SHIFT);
    28ae:	f003 0307 	and.w	r3, r3, #7
#if defined(_CMU_LCDCTRL_MASK)
    case (CMU_LCD_CLK_BRANCH << CMU_CLK_BRANCH_POS):
      ret = lfClkGet(cmuClock_LFA);
      ret >>= (CMU->LFAPRESC0 & _CMU_LFAPRESC0_LCD_MASK)
              >> _CMU_LFAPRESC0_LCD_SHIFT;
      ret /= 1U + ((CMU->LCDCTRL & _CMU_LCDCTRL_FDIV_MASK)
    28b2:	3301      	adds	r3, #1
    28b4:	9a03      	ldr	r2, [sp, #12]
    28b6:	fbb2 f3f3 	udiv	r3, r2, r3
    28ba:	9303      	str	r3, [sp, #12]
                   >> _CMU_LCDCTRL_FDIV_SHIFT);
      break;
    28bc:	e03b      	b.n	2936 <CMU_ClockFreqGet+0x1be>
#endif
#endif

#if defined(_CMU_LFACLKEN0_LESENSE_MASK)
    case (CMU_LESENSE_CLK_BRANCH << CMU_CLK_BRANCH_POS):
      ret = lfClkGet(cmuClock_LFA);
    28be:	4821      	ldr	r0, [pc, #132]	; (2944 <CMU_ClockFreqGet+0x1cc>)
    28c0:	f7ff fe44 	bl	254c <lfClkGet>
    28c4:	9003      	str	r0, [sp, #12]
      ret >>= (CMU->LFAPRESC0 & _CMU_LFAPRESC0_LESENSE_MASK)
    28c6:	4b1e      	ldr	r3, [pc, #120]	; (2940 <CMU_ClockFreqGet+0x1c8>)
    28c8:	6e9b      	ldr	r3, [r3, #104]	; 0x68
              >> _CMU_LFAPRESC0_LESENSE_SHIFT;
    28ca:	f003 0303 	and.w	r3, r3, #3
#endif

#if defined(_CMU_LFACLKEN0_LESENSE_MASK)
    case (CMU_LESENSE_CLK_BRANCH << CMU_CLK_BRANCH_POS):
      ret = lfClkGet(cmuClock_LFA);
      ret >>= (CMU->LFAPRESC0 & _CMU_LFAPRESC0_LESENSE_MASK)
    28ce:	9a03      	ldr	r2, [sp, #12]
    28d0:	fa22 f303 	lsr.w	r3, r2, r3
    28d4:	9303      	str	r3, [sp, #12]
              >> _CMU_LFAPRESC0_LESENSE_SHIFT;
      break;
    28d6:	e02e      	b.n	2936 <CMU_ClockFreqGet+0x1be>
#endif

    case (CMU_LFB_CLK_BRANCH << CMU_CLK_BRANCH_POS):
      ret = lfClkGet(cmuClock_LFB);
    28d8:	481b      	ldr	r0, [pc, #108]	; (2948 <CMU_ClockFreqGet+0x1d0>)
    28da:	f7ff fe37 	bl	254c <lfClkGet>
    28de:	9003      	str	r0, [sp, #12]
      break;
    28e0:	e029      	b.n	2936 <CMU_ClockFreqGet+0x1be>

#if defined(_CMU_LFBCLKEN0_LEUART0_MASK)
    case (CMU_LEUART0_CLK_BRANCH << CMU_CLK_BRANCH_POS):
      ret = lfClkGet(cmuClock_LFB);
    28e2:	4819      	ldr	r0, [pc, #100]	; (2948 <CMU_ClockFreqGet+0x1d0>)
    28e4:	f7ff fe32 	bl	254c <lfClkGet>
    28e8:	9003      	str	r0, [sp, #12]
#if defined(_SILICON_LABS_32B_SERIES_0)
      ret >>= (CMU->LFBPRESC0 & _CMU_LFBPRESC0_LEUART0_MASK)
    28ea:	4b15      	ldr	r3, [pc, #84]	; (2940 <CMU_ClockFreqGet+0x1c8>)
    28ec:	6f1b      	ldr	r3, [r3, #112]	; 0x70
              >> _CMU_LFBPRESC0_LEUART0_SHIFT;
    28ee:	f003 0303 	and.w	r3, r3, #3

#if defined(_CMU_LFBCLKEN0_LEUART0_MASK)
    case (CMU_LEUART0_CLK_BRANCH << CMU_CLK_BRANCH_POS):
      ret = lfClkGet(cmuClock_LFB);
#if defined(_SILICON_LABS_32B_SERIES_0)
      ret >>= (CMU->LFBPRESC0 & _CMU_LFBPRESC0_LEUART0_MASK)
    28f2:	9a03      	ldr	r2, [sp, #12]
    28f4:	fa22 f303 	lsr.w	r3, r2, r3
    28f8:	9303      	str	r3, [sp, #12]
              >> _CMU_LFBPRESC0_LEUART0_SHIFT;
#else
      ret /= CMU_Log2ToDiv((CMU->LFBPRESC0 & _CMU_LFBPRESC0_LEUART0_MASK)
                           >> _CMU_LFBPRESC0_LEUART0_SHIFT);
#endif
      break;
    28fa:	e01c      	b.n	2936 <CMU_ClockFreqGet+0x1be>
#endif

#if defined(_CMU_LFBCLKEN0_LEUART1_MASK)
    case (CMU_LEUART1_CLK_BRANCH << CMU_CLK_BRANCH_POS):
      ret = lfClkGet(cmuClock_LFB);
    28fc:	4812      	ldr	r0, [pc, #72]	; (2948 <CMU_ClockFreqGet+0x1d0>)
    28fe:	f7ff fe25 	bl	254c <lfClkGet>
    2902:	9003      	str	r0, [sp, #12]
#if defined(_SILICON_LABS_32B_SERIES_0)
      ret >>= (CMU->LFBPRESC0 & _CMU_LFBPRESC0_LEUART1_MASK)
    2904:	4b0e      	ldr	r3, [pc, #56]	; (2940 <CMU_ClockFreqGet+0x1c8>)
    2906:	6f1b      	ldr	r3, [r3, #112]	; 0x70
    2908:	f003 0330 	and.w	r3, r3, #48	; 0x30
              >> _CMU_LFBPRESC0_LEUART1_SHIFT;
    290c:	091b      	lsrs	r3, r3, #4

#if defined(_CMU_LFBCLKEN0_LEUART1_MASK)
    case (CMU_LEUART1_CLK_BRANCH << CMU_CLK_BRANCH_POS):
      ret = lfClkGet(cmuClock_LFB);
#if defined(_SILICON_LABS_32B_SERIES_0)
      ret >>= (CMU->LFBPRESC0 & _CMU_LFBPRESC0_LEUART1_MASK)
    290e:	9a03      	ldr	r2, [sp, #12]
    2910:	fa22 f303 	lsr.w	r3, r2, r3
    2914:	9303      	str	r3, [sp, #12]
              >> _CMU_LFBPRESC0_LEUART1_SHIFT;
#else
      ret /= CMU_Log2ToDiv((CMU->LFBPRESC0 & _CMU_LFBPRESC0_LEUART1_MASK)
                           >> _CMU_LFBPRESC0_LEUART1_SHIFT);
#endif
      break;
    2916:	e00e      	b.n	2936 <CMU_ClockFreqGet+0x1be>
      ret = lfClkGet(cmuClock_LFE);
      break;
#endif

    case (CMU_DBG_CLK_BRANCH << CMU_CLK_BRANCH_POS):
      ret = dbgClkGet();
    2918:	f7ff fdf8 	bl	250c <dbgClkGet>
    291c:	9003      	str	r0, [sp, #12]
      break;
    291e:	e00a      	b.n	2936 <CMU_ClockFreqGet+0x1be>

    case (CMU_AUX_CLK_BRANCH << CMU_CLK_BRANCH_POS):
      ret = auxClkGet();
    2920:	f7ff fd9c 	bl	245c <auxClkGet>
    2924:	9003      	str	r0, [sp, #12]
      break;
    2926:	e006      	b.n	2936 <CMU_ClockFreqGet+0x1be>

#if defined(USBC_CLOCK_PRESENT)
    case (CMU_USBC_CLK_BRANCH << CMU_CLK_BRANCH_POS):
      ret = usbCClkGet();
    2928:	f7ff fe98 	bl	265c <usbCClkGet>
    292c:	9003      	str	r0, [sp, #12]
      break;
    292e:	e002      	b.n	2936 <CMU_ClockFreqGet+0x1be>
      break;
#endif

    default:
      EFM_ASSERT(0);
      ret = 0;
    2930:	2300      	movs	r3, #0
    2932:	9303      	str	r3, [sp, #12]
      break;
    2934:	bf00      	nop
  }

  return ret;
    2936:	9b03      	ldr	r3, [sp, #12]
}
    2938:	4618      	mov	r0, r3
    293a:	b004      	add	sp, #16
    293c:	bd10      	pop	{r4, pc}
    293e:	bf00      	nop
    2940:	400c8000 	.word	0x400c8000
    2944:	001a0002 	.word	0x001a0002
    2948:	001c0003 	.word	0x001c0003

0000294c <CMU_ClockSelectGet>:
 * @return
 *   Reference clock used for clocking selected branch, #cmuSelect_Error if
 *   invalid @p clock provided.
 ******************************************************************************/
CMU_Select_TypeDef CMU_ClockSelectGet(CMU_Clock_TypeDef clock)
{
    294c:	b084      	sub	sp, #16
    294e:	9001      	str	r0, [sp, #4]
  CMU_Select_TypeDef ret = cmuSelect_Disabled;
    2950:	2301      	movs	r3, #1
    2952:	f88d 300f 	strb.w	r3, [sp, #15]
  uint32_t selReg;

  selReg = (clock >> CMU_SEL_REG_POS) & CMU_SEL_REG_MASK;
    2956:	9b01      	ldr	r3, [sp, #4]
    2958:	f003 030f 	and.w	r3, r3, #15
    295c:	9302      	str	r3, [sp, #8]

  switch (selReg) {
    295e:	9b02      	ldr	r3, [sp, #8]
    2960:	3b01      	subs	r3, #1
    2962:	2b06      	cmp	r3, #6
    2964:	f200 80a6 	bhi.w	2ab4 <CMU_ClockSelectGet+0x168>
    2968:	a201      	add	r2, pc, #4	; (adr r2, 2970 <CMU_ClockSelectGet+0x24>)
    296a:	f852 f023 	ldr.w	pc, [r2, r3, lsl #2]
    296e:	bf00      	nop
    2970:	0000298d 	.word	0x0000298d
    2974:	000029cb 	.word	0x000029cb
    2978:	00002a0f 	.word	0x00002a0f
    297c:	00002ab5 	.word	0x00002ab5
    2980:	00002ab5 	.word	0x00002ab5
    2984:	00002a53 	.word	0x00002a53
